0xfffffe00092c9cc8  __ZN18AppleASCWrapV6SISP9MetaClassD1Ev
0xfffffe00092ca110  __ZN18AppleASCWrapV6SISP9MetaClassD0Ev
0xfffffe00092ca118  __ZN10AppleA7IOP7stopCPUEv
0xfffffe00092ca150  __ZN8AppleIOP10logTimeoutEj
0xfffffe00092ca160  __ZN8AppleIOP10_lockInboxEv
0xfffffe00092ca1a4  __ZN8AppleIOP12_unlockInboxEv
0xfffffe00092ca1e4  __ZN8AppleIOP11_lockOutboxEv
0xfffffe00092ca228  __ZN8AppleIOP13_unlockOutboxEv
0xfffffe00092ca268  __ZN10AppleA7IOP4_regEj
0xfffffe00092ca278  __GLOBAL__sub_I_AppleASCWrapV6SISP.cpp
0xfffffe00092ca2c8  __GLOBAL__D_a
0xfffffe00092ca320  __ZN14AppleASCWrapV69MetaClassD1Ev
0xfffffe00092cb218  __ZN14AppleASCWrapV69MetaClassD0Ev
0xfffffe00092cb220  __ZN10AppleA7IOP7stopCPUEv
0xfffffe00092cb258  __ZN8AppleIOP10logTimeoutEj
0xfffffe00092cb268  __ZN8AppleIOP10_lockInboxEv
0xfffffe00092cb2ac  __ZN8AppleIOP12_unlockInboxEv
0xfffffe00092cb2ec  __ZN8AppleIOP11_lockOutboxEv
0xfffffe00092cb330  __ZN8AppleIOP13_unlockOutboxEv
0xfffffe00092cb370  __ZN10AppleA7IOP4_regEj
0xfffffe00092cb380  __ZN9os_detail21panic_trapping_policy4trapEPKc
0xfffffe00092cb3b0  __GLOBAL__sub_I_AppleASCWrapV6.cpp
0xfffffe00092cb400  __GLOBAL__D_a
0xfffffe00092cb458  __ZN17AppleASCWrapV6SEP9MetaClassD1Ev
0xfffffe00092cb6c8  __ZN17AppleASCWrapV6SEP9MetaClassD0Ev
0xfffffe00092cb6d0  __ZN10AppleA7IOP7stopCPUEv
0xfffffe00092cb708  __ZN8AppleIOP10logTimeoutEj
0xfffffe00092cb718  __ZN8AppleIOP10_lockInboxEv
0xfffffe00092cb75c  __ZN8AppleIOP12_unlockInboxEv
0xfffffe00092cb79c  __ZN8AppleIOP11_lockOutboxEv
0xfffffe00092cb7e0  __ZN8AppleIOP13_unlockOutboxEv
0xfffffe00092cb820  __ZN10AppleA7IOP4_regEj
0xfffffe00092cb830  __GLOBAL__sub_I_AppleASCWrapV6SEP.cpp
0xfffffe00092cb880  __GLOBAL__D_a
0xfffffe00092cb890  __start
0xfffffe00092cb8b4  _OSKextGetCurrentIdentifier
0xfffffe00092cb8c8  _OSKextGetCurrentVersionString
0xfffffe00092cb8dc  _OSKextGetCurrentLoadTag
0xfffffe00092cb8f0  __stop
0xfffffe00092cb914  __ZN18AppleASCWrapV6SISP10initializeEv.cold.1
0xfffffe00092cb960  __ZN14AppleASCWrapV610initializeEv.cold.1
0xfffffe00092cb9ac  __ZN14AppleASCWrapV610initializeEv.cold.2
0xfffffe00092cb9f8  __ZN14AppleASCWrapV610initializeEv.cold.3
0xfffffe00092cba44  __ZN14AppleASCWrapV610initializeEv.cold.4
0xfffffe00092cba90  __ZN14AppleASCWrapV610initializeEv.cold.5
0xfffffe00092cbadc  __ZN14AppleASCWrapV612_mapFirmwareEyP18IOMemoryDescriptorj.cold.1
0xfffffe00092cbb08  __ZN14AppleASCWrapV622getMailboxDebugEntriesEv.cold.1
0xfffffe00092cbb20  __ZN14AppleASCWrapV614getMailboxBulkEPvPj.cold.1
0xfffffe00092cbb6c  __ZN14AppleASCWrapV614getMailboxBulkEPvPj.cold.2
0xfffffe000c7b667c  __kext_apple_cc
0xfffffe000c7b6680  __realmain
0xfffffe000c7b6688  __antimain
0xfffffe0007e3a360  __ZL22AppleASCWrapV6SISP_ktv
0xfffffe0007e3a3a0  __ZL18AppleASCWrapV6_ktv
0xfffffe0007e3a3e0  __ZL21AppleASCWrapV6SEP_ktv
0xfffffe000c7b66b8  __ZN14AppleASCWrapV610gMetaClassE
0xfffffe00092cab98  __ZN14AppleASCWrapV610getMailboxEjPvb
0xfffffe00092ca538  __ZN14AppleASCWrapV610initializeEv
0xfffffe0007e38c88  __ZN14AppleASCWrapV610superClassE
0xfffffe00092ca7ec  __ZN14AppleASCWrapV611_setIORVBAREy
0xfffffe00092ca9a4  __ZN14AppleASCWrapV612_generateNMIEv
0xfffffe00092ca824  __ZN14AppleASCWrapV612_mapFirmwareEyP18IOMemoryDescriptorj
0xfffffe00092cafcc  __ZN14AppleASCWrapV613_enableOutboxEb
0xfffffe00092caf64  __ZN14AppleASCWrapV613_getInboxFullEv
0xfffffe00092caf1c  __ZN14AppleASCWrapV614_getInboxEmptyEv
0xfffffe00092ca914  __ZN14AppleASCWrapV614_triggerFiqNmiEv
0xfffffe00092ca88c  __ZN14AppleASCWrapV614_unmapFirmwareEv
0xfffffe00092cacfc  __ZN14AppleASCWrapV614getMailboxBulkEPvPj
0xfffffe00092cb18c  __ZN14AppleASCWrapV615_getOutboxEmptyEv
0xfffffe00092ca808  __ZN14AppleASCWrapV616_isIORVBARLockedEv
0xfffffe00092ca940  __ZN14AppleASCWrapV617_triggerExtIrqNmiEv
0xfffffe00092caed4  __ZN14AppleASCWrapV619_getKICInboxEnabledEv
0xfffffe00092cb1f4  __ZN14AppleASCWrapV621_disableAllInterruptsEv
0xfffffe00092cb1fc  __ZN14AppleASCWrapV621_enableInboxInterruptEb
0xfffffe00092cb204  __ZN14AppleASCWrapV622_enableOutboxInterruptEb
0xfffffe00092cac0c  __ZN14AppleASCWrapV622getMailboxDebugEntriesEv
0xfffffe00092cb040  __ZN14AppleASCWrapV624renderMailboxDebugStatusEPcm
0xfffffe00092caeb8  __ZN14AppleASCWrapV66_inboxEPv
0xfffffe00092caa28  __ZN14AppleASCWrapV67_isIdleEPj
0xfffffe00092cae9c  __ZN14AppleASCWrapV67_outboxEPv
0xfffffe00092caad8  __ZN14AppleASCWrapV67_runCPUEb
0xfffffe00092ca2d8  __ZN14AppleASCWrapV69MetaClassC1Ev
0xfffffe00092ca434  __ZN14AppleASCWrapV69MetaClassC2Ev
0xfffffe0007e38c80  __ZN14AppleASCWrapV69metaClassE
0xfffffe00092ca370  __ZN14AppleASCWrapV6C1EPK11OSMetaClass
0xfffffe00092ca4c4  __ZN14AppleASCWrapV6C1Ev
0xfffffe00092ca328  __ZN14AppleASCWrapV6C2EPK11OSMetaClass
0xfffffe00092ca4cc  __ZN14AppleASCWrapV6C2Ev
0xfffffe00092ca3c8  __ZN14AppleASCWrapV6D0Ev
0xfffffe00092ca3c0  __ZN14AppleASCWrapV6D1Ev
0xfffffe00092ca3b8  __ZN14AppleASCWrapV6D2Ev
0xfffffe00092ca40c  __ZN14AppleASCWrapV6dlEPvm
0xfffffe00092ca4b0  __ZN14AppleASCWrapV6nwEm
0xfffffe000c7b66e0  __ZN17AppleASCWrapV6SEP10gMetaClassE
0xfffffe0007e397f8  __ZN17AppleASCWrapV6SEP10superClassE
0xfffffe00092cb6b8  __ZN17AppleASCWrapV6SEP12_mapFirmwareEyP18IOMemoryDescriptorj
0xfffffe00092cb6c0  __ZN17AppleASCWrapV6SEP14_unmapFirmwareEv
0xfffffe00092cb410  __ZN17AppleASCWrapV6SEP9MetaClassC1Ev
0xfffffe00092cb544  __ZN17AppleASCWrapV6SEP9MetaClassC2Ev
0xfffffe0007e397f0  __ZN17AppleASCWrapV6SEP9metaClassE
0xfffffe00092cb494  __ZN17AppleASCWrapV6SEPC1EPK11OSMetaClass
0xfffffe00092cb608  __ZN17AppleASCWrapV6SEPC1Ev
0xfffffe00092cb460  __ZN17AppleASCWrapV6SEPC2EPK11OSMetaClass
0xfffffe00092cb660  __ZN17AppleASCWrapV6SEPC2Ev
0xfffffe00092cb4d8  __ZN17AppleASCWrapV6SEPD0Ev
0xfffffe00092cb4d0  __ZN17AppleASCWrapV6SEPD1Ev
0xfffffe00092cb4c8  __ZN17AppleASCWrapV6SEPD2Ev
0xfffffe00092cb51c  __ZN17AppleASCWrapV6SEPdlEPvm
0xfffffe00092cb5f4  __ZN17AppleASCWrapV6SEPnwEm
0xfffffe000c7b6690  __ZN18AppleASCWrapV6SISP10gMetaClassE
0xfffffe00092c9f28  __ZN18AppleASCWrapV6SISP10initializeEv
0xfffffe0007e38118  __ZN18AppleASCWrapV6SISP10superClassE
0xfffffe00092ca000  __ZN18AppleASCWrapV6SISP7_runCPUEb
0xfffffe00092c9c80  __ZN18AppleASCWrapV6SISP9MetaClassC1Ev
0xfffffe00092c9db4  __ZN18AppleASCWrapV6SISP9MetaClassC2Ev
0xfffffe0007e38110  __ZN18AppleASCWrapV6SISP9metaClassE
0xfffffe00092c9d04  __ZN18AppleASCWrapV6SISPC1EPK11OSMetaClass
0xfffffe00092c9e78  __ZN18AppleASCWrapV6SISPC1Ev
0xfffffe00092c9cd0  __ZN18AppleASCWrapV6SISPC2EPK11OSMetaClass
0xfffffe00092c9ed0  __ZN18AppleASCWrapV6SISPC2Ev
0xfffffe00092c9d48  __ZN18AppleASCWrapV6SISPD0Ev
0xfffffe00092c9d40  __ZN18AppleASCWrapV6SISPD1Ev
0xfffffe00092c9d38  __ZN18AppleASCWrapV6SISPD2Ev
0xfffffe00092c9d8c  __ZN18AppleASCWrapV6SISPdlEPvm
0xfffffe00092c9e64  __ZN18AppleASCWrapV6SISPnwEm
0xfffffe00092ca424  __ZNK14AppleASCWrapV612getMetaClassEv
0xfffffe00092ca930  __ZNK14AppleASCWrapV615_nmiExtIrqIndexEv
0xfffffe00092cb20c  __ZNK14AppleASCWrapV615mailboxItemSizeEv
0xfffffe00092ca47c  __ZNK14AppleASCWrapV69MetaClass5allocEv
0xfffffe00092cb534  __ZNK17AppleASCWrapV6SEP12getMetaClassEv
0xfffffe00092cb58c  __ZNK17AppleASCWrapV6SEP9MetaClass5allocEv
0xfffffe00092c9da4  __ZNK18AppleASCWrapV6SISP12getMetaClassEv
0xfffffe00092c9dfc  __ZNK18AppleASCWrapV6SISP9MetaClass5allocEv
0xfffffe0007e38c90  __ZTV14AppleASCWrapV6
0xfffffe0007e39800  __ZTV17AppleASCWrapV6SEP
0xfffffe0007e38120  __ZTV18AppleASCWrapV6SISP
0xfffffe0007e396e8  __ZTVN14AppleASCWrapV69MetaClassE
0xfffffe0007e3a258  __ZTVN17AppleASCWrapV6SEP9MetaClassE
0xfffffe0007e38b78  __ZTVN18AppleASCWrapV6SISP9MetaClassE
0xfffffe000c7b65b8  _kmod_info
0x0000000000000000  _IOSimpleLockLock
0x0000000000000000  _IOSimpleLockUnlock
0x0000000000000000  _IOSleep
0x0000000000000000  _OSObject_typed_operator_delete
0x0000000000000000  _OSObject_typed_operator_new
0x0000000000000000  __ZN10AppleA7IOP10gMetaClassE
0x0000000000000000  __ZN10AppleA7IOP10resetStateEv
0x0000000000000000  __ZN10AppleA7IOP11enablePowerEv
0x0000000000000000  __ZN10AppleA7IOP11physToSlaveEy
0x0000000000000000  __ZN10AppleA7IOP11postMailboxEjPvjb
0x0000000000000000  __ZN10AppleA7IOP12ringDoorbellEj
0x0000000000000000  __ZN10AppleA7IOP13_disablePowerEv
0x0000000000000000  __ZN10AppleA7IOP13_inboxHandlerEP22IOInterruptEventSource
0x0000000000000000  __ZN10AppleA7IOP14_outboxHandlerEP22IOInterruptEventSource
0x0000000000000000  __ZN10AppleA7IOP14waitForMailboxEj
0x0000000000000000  __ZN10AppleA7IOP16_enablePowerLateEv
0x0000000000000000  __ZN10AppleA7IOP16_setMapperActiveEb
0x0000000000000000  __ZN10AppleA7IOP16_syncIOPTimebaseEv
0x0000000000000000  __ZN10AppleA7IOP16disablePowerLateEv
0x0000000000000000  __ZN10AppleA7IOP16getStructuredLogEv
0x0000000000000000  __ZN10AppleA7IOP17_hasiBootFirmwareEv
0x0000000000000000  __ZN10AppleA7IOP17setDoorbellActionEPFvP8OSObjectPvjES1_S2_j
0x0000000000000000  __ZN10AppleA7IOP18_enableInboxFilterEv
0x0000000000000000  __ZN10AppleA7IOP18slaveMemoryOptionsEv
0x0000000000000000  __ZN10AppleA7IOP19startCPUWithOptionsEP15IOSlaveFirmwarej
0x0000000000000000  __ZN10AppleA7IOP20_inboxUnderflowCheckEjj
0x0000000000000000  __ZN10AppleA7IOP20slaveMemoryAlignmentEv
0x0000000000000000  __ZN10AppleA7IOP21_dartMapiBootFirmwareEP8IOMapper
0x0000000000000000  __ZN10AppleA7IOP21_get_integer_propertyEP15IORegistryEntryPKcPj
0x0000000000000000  __ZN10AppleA7IOP21_outboxUnderflowCheckEjj
0x0000000000000000  __ZN10AppleA7IOP21getMailboxDebugStatusEv
0x0000000000000000  __ZN10AppleA7IOP23enableMailboxInterruptsEb
0x0000000000000000  __ZN10AppleA7IOP25getWrapperPhysicalAddressEv
0x0000000000000000  __ZN10AppleA7IOP29_get_integer_property_defaultEP15IORegistryEntryPKcj
0x0000000000000000  __ZN10AppleA7IOP5startEP9IOService
0x0000000000000000  __ZN10AppleA7IOP7stopCPUEb
0x0000000000000000  __ZN10AppleA7IOP8startCPUEP15IOSlaveFirmware
0x0000000000000000  __ZN10AppleA7IOPC2EPK11OSMetaClass
0x0000000000000000  __ZN10AppleA7IOPD2Ev
0x0000000000000000  __ZN10IOSlaveCPU4freeEv
0x0000000000000000  __ZN11OSMetaClass21_RESERVEDOSMetaClass0Ev
0x0000000000000000  __ZN11OSMetaClass21_RESERVEDOSMetaClass1Ev
0x0000000000000000  __ZN11OSMetaClass21_RESERVEDOSMetaClass2Ev
0x0000000000000000  __ZN11OSMetaClass21_RESERVEDOSMetaClass3Ev
0x0000000000000000  __ZN11OSMetaClass21_RESERVEDOSMetaClass4Ev
0x0000000000000000  __ZN11OSMetaClass21_RESERVEDOSMetaClass5Ev
0x0000000000000000  __ZN11OSMetaClass21_RESERVEDOSMetaClass6Ev
0x0000000000000000  __ZN11OSMetaClass21_RESERVEDOSMetaClass7Ev
0x0000000000000000  __ZN11OSMetaClassC2EPKcPKS_j
0x0000000000000000  __ZN11OSMetaClassD2Ev
0x0000000000000000  __ZN15IORegistryEntry11detachAboveEPK15IORegistryPlane
0x0000000000000000  __ZN15IORegistryEntry11setLocationEPK8OSSymbolPK15IORegistryPlane
0x0000000000000000  __ZN15IORegistryEntry11setLocationEPKcPK15IORegistryPlane
0x0000000000000000  __ZN15IORegistryEntry11setPropertyEPK8OSStringP8OSObject
0x0000000000000000  __ZN15IORegistryEntry11setPropertyEPK8OSSymbolP8OSObject
0x0000000000000000  __ZN15IORegistryEntry11setPropertyEPKcP8OSObject
0x0000000000000000  __ZN15IORegistryEntry11setPropertyEPKcPvj
0x0000000000000000  __ZN15IORegistryEntry11setPropertyEPKcS1_
0x0000000000000000  __ZN15IORegistryEntry11setPropertyEPKcb
0x0000000000000000  __ZN15IORegistryEntry11setPropertyEPKcyj
0x0000000000000000  __ZN15IORegistryEntry13attachToChildEPS_PK15IORegistryPlane
0x0000000000000000  __ZN15IORegistryEntry13childFromPathEPKcPK15IORegistryPlanePcPi
0x0000000000000000  __ZN15IORegistryEntry13setPropertiesEP8OSObject
0x0000000000000000  __ZN15IORegistryEntry14attachToParentEPS_PK15IORegistryPlane
0x0000000000000000  __ZN15IORegistryEntry14propertyExistsEPKc
0x0000000000000000  __ZN15IORegistryEntry14removePropertyEPK8OSString
0x0000000000000000  __ZN15IORegistryEntry14removePropertyEPK8OSSymbol
0x0000000000000000  __ZN15IORegistryEntry14removePropertyEPKc
0x0000000000000000  __ZN15IORegistryEntry15detachFromChildEPS_PK15IORegistryPlane
0x0000000000000000  __ZN15IORegistryEntry16detachFromParentEPS_PK15IORegistryPlane
0x0000000000000000  __ZN15IORegistryEntry16setPropertyTableEP12OSDictionary
0x0000000000000000  __ZN15IORegistryEntry17runPropertyActionEPFiP8OSObjectPvS2_S2_S2_ES1_S2_S2_S2_S2_
0x0000000000000000  __ZN15IORegistryEntry25_RESERVEDIORegistryEntry0Ev
0x0000000000000000  __ZN15IORegistryEntry25_RESERVEDIORegistryEntry1Ev
0x0000000000000000  __ZN15IORegistryEntry25_RESERVEDIORegistryEntry2Ev
0x0000000000000000  __ZN15IORegistryEntry25_RESERVEDIORegistryEntry3Ev
0x0000000000000000  __ZN15IORegistryEntry25_RESERVEDIORegistryEntry4Ev
0x0000000000000000  __ZN15IORegistryEntry25_RESERVEDIORegistryEntry5Ev
0x0000000000000000  __ZN15IORegistryEntry25_RESERVEDIORegistryEntry6Ev
0x0000000000000000  __ZN15IORegistryEntry25_RESERVEDIORegistryEntry7Ev
0x0000000000000000  __ZN15IORegistryEntry25_RESERVEDIORegistryEntry8Ev
0x0000000000000000  __ZN15IORegistryEntry25_RESERVEDIORegistryEntry9Ev
0x0000000000000000  __ZN15IORegistryEntry26_RESERVEDIORegistryEntry10Ev
0x0000000000000000  __ZN15IORegistryEntry26_RESERVEDIORegistryEntry11Ev
0x0000000000000000  __ZN15IORegistryEntry26_RESERVEDIORegistryEntry12Ev
0x0000000000000000  __ZN15IORegistryEntry26_RESERVEDIORegistryEntry13Ev
0x0000000000000000  __ZN15IORegistryEntry26_RESERVEDIORegistryEntry14Ev
0x0000000000000000  __ZN15IORegistryEntry26_RESERVEDIORegistryEntry15Ev
0x0000000000000000  __ZN15IORegistryEntry26_RESERVEDIORegistryEntry16Ev
0x0000000000000000  __ZN15IORegistryEntry26_RESERVEDIORegistryEntry17Ev
0x0000000000000000  __ZN15IORegistryEntry26_RESERVEDIORegistryEntry18Ev
0x0000000000000000  __ZN15IORegistryEntry26_RESERVEDIORegistryEntry19Ev
0x0000000000000000  __ZN15IORegistryEntry26_RESERVEDIORegistryEntry20Ev
0x0000000000000000  __ZN15IORegistryEntry26_RESERVEDIORegistryEntry21Ev
0x0000000000000000  __ZN15IORegistryEntry26_RESERVEDIORegistryEntry22Ev
0x0000000000000000  __ZN15IORegistryEntry26_RESERVEDIORegistryEntry23Ev
0x0000000000000000  __ZN15IORegistryEntry26_RESERVEDIORegistryEntry24Ev
0x0000000000000000  __ZN15IORegistryEntry26_RESERVEDIORegistryEntry25Ev
0x0000000000000000  __ZN15IORegistryEntry26_RESERVEDIORegistryEntry26Ev
0x0000000000000000  __ZN15IORegistryEntry26_RESERVEDIORegistryEntry27Ev
0x0000000000000000  __ZN15IORegistryEntry26_RESERVEDIORegistryEntry28Ev
0x0000000000000000  __ZN15IORegistryEntry26_RESERVEDIORegistryEntry29Ev
0x0000000000000000  __ZN15IORegistryEntry26_RESERVEDIORegistryEntry30Ev
0x0000000000000000  __ZN15IORegistryEntry26_RESERVEDIORegistryEntry31Ev
0x0000000000000000  __ZN15IORegistryEntry7setNameEPK8OSSymbolPK15IORegistryPlane
0x0000000000000000  __ZN15IORegistryEntry7setNameEPKcPK15IORegistryPlane
0x0000000000000000  __ZN15IORegistryEntry9detachAllEPK15IORegistryPlane
0x0000000000000000  __ZN15OSMetaClassBase25_RESERVEDOSMetaClassBase0Ev
0x0000000000000000  __ZN15OSMetaClassBase25_RESERVEDOSMetaClassBase1Ev
0x0000000000000000  __ZN15OSMetaClassBase25_RESERVEDOSMetaClassBase2Ev
0x0000000000000000  __ZN15OSMetaClassBase25_RESERVEDOSMetaClassBase3Ev
0x0000000000000000  __ZN15OSMetaClassBase25_RESERVEDOSMetaClassBase4Ev
0x0000000000000000  __ZN15OSMetaClassBase25_RESERVEDOSMetaClassBase5Ev
0x0000000000000000  __ZN15OSMetaClassBase25_RESERVEDOSMetaClassBase6Ev
0x0000000000000000  __ZN15OSMetaClassBase25_RESERVEDOSMetaClassBase7Ev
0x0000000000000000  __ZN15OSMetaClassBase8DispatchE5IORPC
0x0000000000000000  __ZN18AppleIOPMailboxLog10logTimeoutEy
0x0000000000000000  __ZN18AppleIOPMailboxLog18logMessageReceivedEPv
0x0000000000000000  __ZN21IOSubMemoryDescriptor12withSubRangeEP18IOMemoryDescriptoryyj
0x0000000000000000  __ZN6OSData9withBytesEPKvj
0x0000000000000000  __ZN8AppleIOP9getMsgLogEPjS0_
0x0000000000000000  __ZN8OSObject18_RESERVEDOSObject0Ev
0x0000000000000000  __ZN8OSObject18_RESERVEDOSObject1Ev
0x0000000000000000  __ZN8OSObject18_RESERVEDOSObject2Ev
0x0000000000000000  __ZN8OSObject18_RESERVEDOSObject3Ev
0x0000000000000000  __ZN8OSObject18_RESERVEDOSObject4Ev
0x0000000000000000  __ZN8OSObject18_RESERVEDOSObject5Ev
0x0000000000000000  __ZN8OSObject18_RESERVEDOSObject6Ev
0x0000000000000000  __ZN8OSObject18_RESERVEDOSObject7Ev
0x0000000000000000  __ZN8OSObject18_RESERVEDOSObject8Ev
0x0000000000000000  __ZN8OSObject18_RESERVEDOSObject9Ev
0x0000000000000000  __ZN8OSObject19_RESERVEDOSObject10Ev
0x0000000000000000  __ZN8OSObject19_RESERVEDOSObject11Ev
0x0000000000000000  __ZN8OSObject19_RESERVEDOSObject12Ev
0x0000000000000000  __ZN8OSObject19_RESERVEDOSObject13Ev
0x0000000000000000  __ZN8OSObject19_RESERVEDOSObject14Ev
0x0000000000000000  __ZN8OSObject19_RESERVEDOSObject15Ev
0x0000000000000000  __ZN8OSObject4initEv
0x0000000000000000  __ZN9IOService10adjustBusyEi
0x0000000000000000  __ZN9IOService10handleOpenEPS_jPv
0x0000000000000000  __ZN9IOService10joinPMtreeEPS_
0x0000000000000000  __ZN9IOService11handleCloseEPS_j
0x0000000000000000  __ZN9IOService12didTerminateEPS_jPb
0x0000000000000000  __ZN9IOService12getBusyStateEv
0x0000000000000000  __ZN9IOService12getResourcesEv
0x0000000000000000  __ZN9IOService12requestProbeEj
0x0000000000000000  __ZN9IOService12tellChangeUpEm
0x0000000000000000  __ZN9IOService12updateReportEP19IOReportChannelListjPvS2_
0x0000000000000000  __ZN9IOService13addPowerChildEPS_
0x0000000000000000  __ZN9IOService13askChangeDownEm
0x0000000000000000  __ZN9IOService13matchLocationEPS_
0x0000000000000000  __ZN9IOService13messageClientEjP8OSObjectPvm
0x0000000000000000  __ZN9IOService13newUserClientEP4taskPvjP12OSDictionaryPP12IOUserClient
0x0000000000000000  __ZN9IOService13newUserClientEP4taskPvjPP12IOUserClient
0x0000000000000000  __ZN9IOService13setPowerStateEmPS_
0x0000000000000000  __ZN9IOService13willTerminateEPS_j
0x0000000000000000  __ZN9IOService14activityTickleEmm
0x0000000000000000  __ZN9IOService14applyToClientsEPFvPS_PvES1_
0x0000000000000000  __ZN9IOService14causeInterruptEi
0x0000000000000000  __ZN9IOService14messageClientsEjPvm
0x0000000000000000  __ZN9IOService14tellChangeDownEm
0x0000000000000000  __ZN9IOService15comparePropertyEP12OSDictionaryPK8OSString
0x0000000000000000  __ZN9IOService15comparePropertyEP12OSDictionaryPKc
0x0000000000000000  __ZN9IOService15configureReportEP19IOReportChannelListjPvS2_
0x0000000000000000  __ZN9IOService15enableInterruptEi
0x0000000000000000  __ZN9IOService15errnoFromReturnEi
0x0000000000000000  __ZN9IOService15getDeviceMemoryEv
0x0000000000000000  __ZN9IOService15nextIdleTimeoutEyyj
0x0000000000000000  __ZN9IOService15powerChangeDoneEm
0x0000000000000000  __ZN9IOService15registerServiceEj
0x0000000000000000  __ZN9IOService15setDeviceMemoryEP7OSArray
0x0000000000000000  __ZN9IOService15terminateClientEPS_j
0x0000000000000000  __ZN9IOService16allowPowerChangeEm
0x0000000000000000  __ZN9IOService16applyToProvidersEPFvPS_PvES1_
0x0000000000000000  __ZN9IOService16disableInterruptEi
0x0000000000000000  __ZN9IOService16getInterruptTypeEiPi
0x0000000000000000  __ZN9IOService16registerInterestEPK8OSSymbolPFiPvS3_jPS_S3_mES3_S3_
0x0000000000000000  __ZN9IOService16removePowerChildEP17IOPowerConnection
0x0000000000000000  __ZN9IOService16requestTerminateEPS_j
0x0000000000000000  __ZN9IOService16stringFromReturnEi
0x0000000000000000  __ZN9IOService16tellNoChangeDownEm
0x0000000000000000  __ZN9IOService17addNeededResourceEPKc
0x0000000000000000  __ZN9IOService17applyToInterestedEPK8OSSymbolPFvP8OSObjectPvES5_
0x0000000000000000  __ZN9IOService17cancelPowerChangeEm
0x0000000000000000  __ZN9IOService17comparePropertiesEP12OSDictionaryP12OSCollection
0x0000000000000000  __ZN9IOService17getAggressivenessEmPm
0x0000000000000000  __ZN9IOService17registerInterruptEiP8OSObjectPFvS1_PvPS_iES2_
0x0000000000000000  __ZN9IOService17setAggressivenessEmm
0x0000000000000000  __ZN9IOService18lockForArbitrationEb
0x0000000000000000  __ZN9IOService18matchPropertyTableEP12OSDictionary
0x0000000000000000  __ZN9IOService18matchPropertyTableEP12OSDictionaryPi
0x0000000000000000  __ZN9IOService18setIdleTimerPeriodEm
0x0000000000000000  __ZN9IOService18systemWillShutdownEj
0x0000000000000000  __ZN9IOService19_RESERVEDIOService0Ev
0x0000000000000000  __ZN9IOService19_RESERVEDIOService1Ev
0x0000000000000000  __ZN9IOService19_RESERVEDIOService2Ev
0x0000000000000000  __ZN9IOService19_RESERVEDIOService3Ev
0x0000000000000000  __ZN9IOService19_RESERVEDIOService4Ev
0x0000000000000000  __ZN9IOService19_RESERVEDIOService5Ev
0x0000000000000000  __ZN9IOService19_RESERVEDIOService6Ev
0x0000000000000000  __ZN9IOService19_RESERVEDIOService7Ev
0x0000000000000000  __ZN9IOService19_RESERVEDIOService8Ev
0x0000000000000000  __ZN9IOService19_RESERVEDIOService9Ev
0x0000000000000000  __ZN9IOService19registerPowerDriverEPS_P14IOPMPowerStatem
0x0000000000000000  __ZN9IOService19unregisterInterruptEi
0x0000000000000000  __ZN9IOService20_RESERVEDIOService10Ev
0x0000000000000000  __ZN9IOService20_RESERVEDIOService11Ev
0x0000000000000000  __ZN9IOService20_RESERVEDIOService12Ev
0x0000000000000000  __ZN9IOService20_RESERVEDIOService13Ev
0x0000000000000000  __ZN9IOService20_RESERVEDIOService14Ev
0x0000000000000000  __ZN9IOService20_RESERVEDIOService15Ev
0x0000000000000000  __ZN9IOService20_RESERVEDIOService16Ev
0x0000000000000000  __ZN9IOService20_RESERVEDIOService17Ev
0x0000000000000000  __ZN9IOService20_RESERVEDIOService18Ev
0x0000000000000000  __ZN9IOService20_RESERVEDIOService19Ev
0x0000000000000000  __ZN9IOService20_RESERVEDIOService20Ev
0x0000000000000000  __ZN9IOService20_RESERVEDIOService21Ev
0x0000000000000000  __ZN9IOService20_RESERVEDIOService22Ev
0x0000000000000000  __ZN9IOService20_RESERVEDIOService23Ev
0x0000000000000000  __ZN9IOService20_RESERVEDIOService24Ev
0x0000000000000000  __ZN9IOService20_RESERVEDIOService25Ev
0x0000000000000000  __ZN9IOService20_RESERVEDIOService26Ev
0x0000000000000000  __ZN9IOService20_RESERVEDIOService27Ev
0x0000000000000000  __ZN9IOService20_RESERVEDIOService28Ev
0x0000000000000000  __ZN9IOService20_RESERVEDIOService29Ev
0x0000000000000000  __ZN9IOService20_RESERVEDIOService30Ev
0x0000000000000000  __ZN9IOService20_RESERVEDIOService31Ev
0x0000000000000000  __ZN9IOService20_RESERVEDIOService32Ev
0x0000000000000000  __ZN9IOService20_RESERVEDIOService33Ev
0x0000000000000000  __ZN9IOService20_RESERVEDIOService34Ev
0x0000000000000000  __ZN9IOService20_RESERVEDIOService35Ev
0x0000000000000000  __ZN9IOService20_RESERVEDIOService36Ev
0x0000000000000000  __ZN9IOService20_RESERVEDIOService37Ev
0x0000000000000000  __ZN9IOService20_RESERVEDIOService38Ev
0x0000000000000000  __ZN9IOService20_RESERVEDIOService39Ev
0x0000000000000000  __ZN9IOService20_RESERVEDIOService40Ev
0x0000000000000000  __ZN9IOService20_RESERVEDIOService41Ev
0x0000000000000000  __ZN9IOService20_RESERVEDIOService42Ev
0x0000000000000000  __ZN9IOService20_RESERVEDIOService43Ev
0x0000000000000000  __ZN9IOService20_RESERVEDIOService44Ev
0x0000000000000000  __ZN9IOService20_RESERVEDIOService45Ev
0x0000000000000000  __ZN9IOService20_RESERVEDIOService46Ev
0x0000000000000000  __ZN9IOService20_RESERVEDIOService47Ev
0x0000000000000000  __ZN9IOService20callPlatformFunctionEPK8OSSymbolbPvS3_S3_S3_
0x0000000000000000  __ZN9IOService20callPlatformFunctionEPKcbPvS2_S2_S2_
0x0000000000000000  __ZN9IOService20getDeviceMemoryCountEv
0x0000000000000000  __ZN9IOService20unlockForArbitrationEv
0x0000000000000000  __ZN9IOService21powerStateDidChangeToEmmPS_
0x0000000000000000  __ZN9IOService22copyClientWithCategoryEPK8OSSymbol
0x0000000000000000  __ZN9IOService22powerStateWillChangeToEmmPS_
0x0000000000000000  __ZN9IOService23acknowledgeNotificationEPvj
0x0000000000000000  __ZN9IOService23requestPowerDomainStateEmP17IOPowerConnectionm
0x0000000000000000  __ZN9IOService24getDeviceMemoryWithIndexEj
0x0000000000000000  __ZN9IOService24mapDeviceMemoryWithIndexEjj
0x0000000000000000  __ZN9IOService24powerStateForDomainStateEm
0x0000000000000000  __ZN9IOService27maxCapabilityForDomainStateEm
0x0000000000000000  __ZN9IOService31initialPowerStateForDomainStateEm
0x0000000000000000  __ZN9IOService4initEP12OSDictionary
0x0000000000000000  __ZN9IOService4initEP15IORegistryEntryPK15IORegistryPlane
0x0000000000000000  __ZN9IOService4openEPS_jPv
0x0000000000000000  __ZN9IOService4stopEPS_
0x0000000000000000  __ZN9IOService5closeEPS_j
0x0000000000000000  __ZN9IOService5probeEPS_Pi
0x0000000000000000  __ZN9IOService6PMinitEv
0x0000000000000000  __ZN9IOService6PMstopEv
0x0000000000000000  __ZN9IOService6attachEPS_
0x0000000000000000  __ZN9IOService6detachEPS_
0x0000000000000000  __ZN9IOService7messageEjPS_Pv
0x0000000000000000  __ZN9IOService8DispatchE5IORPC
0x0000000000000000  __ZN9IOService8finalizeEj
0x0000000000000000  __ZN9IOService9terminateEj
0x0000000000000000  __ZNK10AppleA7IOP19_mailboxesAvailableEv
0x0000000000000000  __ZNK10AppleA7IOP23_apInitializesMailboxesEv
0x0000000000000000  __ZNK10AppleA7IOP25_inboxEmptyInterruptIndexEv
0x0000000000000000  __ZNK10AppleA7IOP29_outboxNotEmptyInterruptIndexEv
0x0000000000000000  __ZNK10AppleA7IOP8_runningEv
0x0000000000000000  __ZNK10IOSlaveCPU11getWorkLoopEv
0x0000000000000000  __ZNK11OSMetaClass12getMetaClassEv
0x0000000000000000  __ZNK11OSMetaClass12taggedRetainEPKv
0x0000000000000000  __ZNK11OSMetaClass13taggedReleaseEPKv
0x0000000000000000  __ZNK11OSMetaClass13taggedReleaseEPKvi
0x0000000000000000  __ZNK11OSMetaClass14getRetainCountEv
0x0000000000000000  __ZNK11OSMetaClass19instanceConstructedEv
0x0000000000000000  __ZNK11OSMetaClass6retainEv
0x0000000000000000  __ZNK11OSMetaClass7releaseEi
0x0000000000000000  __ZNK11OSMetaClass7releaseEv
0x0000000000000000  __ZNK11OSMetaClass9serializeEP11OSSerialize
0x0000000000000000  __ZNK15IORegistryEntry11compareNameEP8OSStringPS1_
0x0000000000000000  __ZNK15IORegistryEntry11getLocationEPK15IORegistryPlane
0x0000000000000000  __ZNK15IORegistryEntry11getPropertyEPK8OSString
0x0000000000000000  __ZNK15IORegistryEntry11getPropertyEPK8OSStringPK15IORegistryPlanej
0x0000000000000000  __ZNK15IORegistryEntry11getPropertyEPK8OSSymbol
0x0000000000000000  __ZNK15IORegistryEntry11getPropertyEPK8OSSymbolPK15IORegistryPlanej
0x0000000000000000  __ZNK15IORegistryEntry11getPropertyEPKc
0x0000000000000000  __ZNK15IORegistryEntry11getPropertyEPKcPK15IORegistryPlanej
0x0000000000000000  __ZNK15IORegistryEntry12compareNamesEP8OSObjectPP8OSString
0x0000000000000000  __ZNK15IORegistryEntry12copyLocationEPK15IORegistryPlane
0x0000000000000000  __ZNK15IORegistryEntry12copyPropertyEPK8OSString
0x0000000000000000  __ZNK15IORegistryEntry12copyPropertyEPK8OSStringPK15IORegistryPlanej
0x0000000000000000  __ZNK15IORegistryEntry12copyPropertyEPK8OSSymbol
0x0000000000000000  __ZNK15IORegistryEntry12copyPropertyEPK8OSSymbolPK15IORegistryPlanej
0x0000000000000000  __ZNK15IORegistryEntry12copyPropertyEPKc
0x0000000000000000  __ZNK15IORegistryEntry12copyPropertyEPKcPK15IORegistryPlanej
0x0000000000000000  __ZNK15IORegistryEntry13getChildEntryEPK15IORegistryPlane
0x0000000000000000  __ZNK15IORegistryEntry14applyToParentsEPFvPS_PvES1_PK15IORegistryPlane
0x0000000000000000  __ZNK15IORegistryEntry14copyChildEntryEPK15IORegistryPlane
0x0000000000000000  __ZNK15IORegistryEntry14getParentEntryEPK15IORegistryPlane
0x0000000000000000  __ZNK15IORegistryEntry15applyToChildrenEPFvPS_PvES1_PK15IORegistryPlane
0x0000000000000000  __ZNK15IORegistryEntry15copyParentEntryEPK15IORegistryPlane
0x0000000000000000  __ZNK15IORegistryEntry16getChildIteratorEPK15IORegistryPlane
0x0000000000000000  __ZNK15IORegistryEntry16getPathComponentEPcPiPK15IORegistryPlane
0x0000000000000000  __ZNK15IORegistryEntry17getParentIteratorEPK15IORegistryPlane
0x0000000000000000  __ZNK15IORegistryEntry24dictionaryWithPropertiesEv
0x0000000000000000  __ZNK15IORegistryEntry7getNameEPK15IORegistryPlane
0x0000000000000000  __ZNK15IORegistryEntry7getPathEPcPiPK15IORegistryPlane
0x0000000000000000  __ZNK15IORegistryEntry7inPlaneEPK15IORegistryPlane
0x0000000000000000  __ZNK15IORegistryEntry7isChildEPS_PK15IORegistryPlaneb
0x0000000000000000  __ZNK15IORegistryEntry8copyNameEPK15IORegistryPlane
0x0000000000000000  __ZNK15IORegistryEntry8getDepthEPK15IORegistryPlane
0x0000000000000000  __ZNK15IORegistryEntry8isParentEPS_PK15IORegistryPlaneb
0x0000000000000000  __ZNK15OSMetaClassBase9isEqualToEPKS_
0x0000000000000000  __ZNK8OSObject12taggedRetainEPKv
0x0000000000000000  __ZNK8OSObject13taggedReleaseEPKv
0x0000000000000000  __ZNK8OSObject13taggedReleaseEPKvi
0x0000000000000000  __ZNK8OSObject14getRetainCountEv
0x0000000000000000  __ZNK8OSObject6retainEv
0x0000000000000000  __ZNK8OSObject7releaseEi
0x0000000000000000  __ZNK8OSObject7releaseEv
0x0000000000000000  __ZNK8OSObject9serializeEP11OSSerialize
0x0000000000000000  __ZNK9IOService11getProviderEv
0x0000000000000000  __ZNK9IOService12handleIsOpenEPKS_
0x0000000000000000  __ZNK9IOService17getClientIteratorEv
0x0000000000000000  __ZNK9IOService19getProviderIteratorEv
0x0000000000000000  __ZNK9IOService19serializePropertiesEP11OSSerialize
0x0000000000000000  __ZNK9IOService21getOpenClientIteratorEv
0x0000000000000000  __ZNK9IOService23getOpenProviderIteratorEv
0x0000000000000000  __ZNK9IOService6isOpenEPKS_
0x0000000000000000  __ZNK9IOService8getStateEv
0x0000000000000000  __ZNK9IOService9getClientEv
0x0000000000000000  __ZTV10AppleA7IOP
0x0000000000000000  _ml_set_interrupts_enabled
0x0000000000000000  _panic
0x0000000000000000  _snprintf
