0xfffffe000713c054  __ZZN15AOPAudioService10_configureEP9IOServiceE11_os_log_fmt
0xfffffe000713c073  __ZZN15AOPAudioService10_configureEP9IOServiceE11_os_log_fmt_1
0xfffffe000713c092  __ZZN15AOPAudioService10_configureEP9IOServiceE11_os_log_fmt_2
0xfffffe000713c0b1  __ZZN15AOPAudioService10_configureEP9IOServiceE11_os_log_fmt_4
0xfffffe000713c0d0  __ZZN15AOPAudioService23_spuReportPacketHandlerEjyPKhmjE11_os_log_fmt
0xfffffe000713c0ef  __ZZN15AOPAudioService23_spuReportPacketHandlerEjyPKhmjE11_os_log_fmt_0
0xfffffe000713c10e  __ZZN15AOPAudioService23_spuReportPacketHandlerEjyPKhmjE11_os_log_fmt_1
0xfffffe000713c12d  __ZZN15AOPAudioService23_spuReportPacketHandlerEjyPKhmjE11_os_log_fmt_2
0xfffffe000713c15a  __ZZN8IOPAudio10AOPService7Private40createCustomIOPMessageMapperFromRegistryEP15IORegistryEntryE11_os_log_fmt
0xfffffe000713c179  __ZZN8IOPAudio10AOPService7Private40createCustomIOPMessageMapperFromRegistryEP15IORegistryEntryE11_os_log_fmt_0
0xfffffe000713c198  __ZZN8IOPAudio10AOPService7Private40createCustomIOPMessageMapperFromRegistryEP15IORegistryEntryE11_os_log_fmt_1
0xfffffe000713c1b7  __ZZN8IOPAudio10AOPService7Private40createCustomIOPMessageMapperFromRegistryEP15IORegistryEntryE11_os_log_fmt_2
0xfffffe000713c1d6  __ZZN8IOPAudio10AOPService7Private39processOptionalNameOverrideFromRegistryEP15IORegistryEntryP9IOServiceE11_os_log_fmt
0xfffffe000713c1f5  __ZZN8IOPAudio10AOPService7Private39processOptionalNameOverrideFromRegistryEP15IORegistryEntryP9IOServiceE11_os_log_fmt_0
0xfffffe000713c214  __ZZN8IOPAudio10AOPService7Private39processOptionalNameOverrideFromRegistryEP15IORegistryEntryP9IOServiceE11_os_log_fmt_1
0xfffffe000713c233  __ZZN8IOPAudio10AOPService7Private39processOptionalNameOverrideFromRegistryEP15IORegistryEntryP9IOServiceE11_os_log_fmt_2
0xfffffe000713c252  __ZZN8IOPAudio10AOPService7Private39processOptionalNameOverrideFromRegistryEP15IORegistryEntryP9IOServiceE11_os_log_fmt_3
0xfffffe000713c271  __ZZNK8IOPAudio10AOPService7Private16SPUReportMessage17iopTimeToAbsoluteEyRyE11_os_log_fmt
0xfffffe000713c290  __ZZNK8IOPAudio10AOPService7Private16SPUReportMessage19iopTimeToContinuousEyRyE11_os_log_fmt
0xfffffe000713c2af  __ZZN8IOPAudio19AOPCommandInterface14openConnectionERKNS0_14ConnectionInfoEE11_os_log_fmt
0xfffffe000713c2ce  __ZZN8IOPAudio19AOPCommandInterface14openConnectionERKNS0_14ConnectionInfoEE11_os_log_fmt_0
0xfffffe000713c2ed  __ZZN8IOPAudio19AOPCommandInterface14openConnectionERKNS0_14ConnectionInfoEE11_os_log_fmt_1
0xfffffe000713c30c  __ZZN8IOPAudio19AOPCommandInterface14openConnectionERKNS0_14ConnectionInfoEE11_os_log_fmt_2
0xfffffe000713c32b  __ZZN8IOPAudio19AOPCommandInterface14openConnectionERKNS0_14ConnectionInfoEE11_os_log_fmt_3
0xfffffe000713c34a  __ZZN8IOPAudio19AOPCommandInterface15closeConnectionEvE11_os_log_fmt
0xfffffe000713c369  __ZZN8IOPAudio19AOPCommandInterface15closeConnectionEvE11_os_log_fmt_0
0xfffffe000713c388  __ZZN8IOPAudio19AOPCommandInterface11getPropertyEjPvPmE11_os_log_fmt
0xfffffe000713c3a7  __ZZN8IOPAudio19AOPCommandInterface11getPropertyEjPvPmE11_os_log_fmt_0
0xfffffe000713c3c6  __ZZN8IOPAudio19AOPCommandInterface11setPropertyEjPKvmE11_os_log_fmt
0xfffffe000713c3e5  __ZZN8IOPAudio19AOPCommandInterface11setPropertyEjPKvmE11_os_log_fmt_0
0xfffffe000713c404  __ZZN8IOPAudio19AOPCommandInterface14performCommandEjPKvmPvPmE11_os_log_fmt
0xfffffe000713c423  __ZZN8IOPAudio19AOPCommandInterface14performCommandEjPKvmPvPmE11_os_log_fmt_0
0xfffffe000713c442  __ZZN8IOPAudio19AOPCommandInterface14performCommandEPN19RTKitAudioFramework6PacketEPvPmE11_os_log_fmt
0xfffffe000713c461  __ZZN8IOPAudio19AOPCommandInterface14performCommandEPN19RTKitAudioFramework6PacketEPvPmE11_os_log_fmt_0
0xfffffe000713c480  __ZZN8IOPAudio19AOPCommandInterface14processMessageEPKN19RTKitAudioFramework7Message6PacketEPhPmE11_os_log_fmt
0xfffffe000713c49f  __ZZN8IOPAudio19AOPCommandInterface14processMessageEPKN19RTKitAudioFramework7Message6PacketEPhPmE11_os_log_fmt_0
0xfffffe000713c4be  __ZZN8IOPAudio19AOPCommandInterface11convertTimeERKNS_31TimeConversionCommandDescriptorEE11_os_log_fmt
0xfffffe00092c0ad8  __ZN15AOPAudioService9MetaClassD1Ev
0xfffffe00092c154c  __ZN15AOPAudioService9MetaClassD0Ev
0xfffffe00092c1554  __GLOBAL__sub_I_AOPAudioService.cpp
0xfffffe00092c15a4  __GLOBAL__D_a
0xfffffe00092c1ed8  __ZN8IOPAudio10AOPService7Private16SPUReportMessageD1Ev
0xfffffe00092c1ee0  __ZN8IOPAudio10AOPService7Private16SPUReportMessageD0Ev
0xfffffe00092c1ee8  __ZNK8IOPAudio10AOPService7Private16SPUReportMessage16getDestinationIDEv
0xfffffe00092c1ef4  __ZNK8IOPAudio13ReportMessage14getMessageTypeEv
0xfffffe00092c1f04  __ZN8IOPAudio10AOPService7Private26RTKitAudioSPUReportMessageD1Ev
0xfffffe00092c1f0c  __ZN8IOPAudio10AOPService7Private26RTKitAudioSPUReportMessageD0Ev
0xfffffe00092c1f14  __ZN9os_detail21panic_trapping_policy4trapEPKc
0xfffffe00092c27d0  __ZN8IOPAudio19AOPCommandInterfaceD1Ev
0xfffffe00092c2870  __ZN8IOPAudio19AOPCommandInterfaceD0Ev
0xfffffe00092c28b0  __ZN19RTKitAudioFramework9Interface11getIdentityERj
0xfffffe00092c2904  __ZN19RTKitAudioFramework9Interface10getVersionEPvPm
0xfffffe00092c293c  __ZN19RTKitAudioFramework9Interface12getNodeCountERj
0xfffffe00092c2990  __ZN19RTKitAudioFramework9Interface12registerReadEjmPKvmPmPvjj
0xfffffe00092c2b3c  __ZN19RTKitAudioFramework9Interface13suspendSystemEj
0xfffffe00092c2be8  __ZN19RTKitAudioFramework9Interface18systemWillShutdownEj
0xfffffe00092c2c94  __ZN19RTKitAudioFramework9Interface16powerStateChangeEjNS_10PowerStateE
0xfffffe00092c2d44  __ZN19RTKitAudioFramework9Interface14propertyChangeEjjjPKvm
0xfffffe00092c2ef8  __ZN19RTKitAudioFramework9Interface19externalSystemReadyEj
0xfffffe00092c2fa4  __ZNK8IOPAudio16CommandInterface11getDomainIDEv
0xfffffe00092c2fb0  __ZNK8IOPAudio16CommandInterface14getIOPDomainIDEv
0xfffffe00092c2fbc  __start
0xfffffe00092c2fe0  _OSKextGetCurrentIdentifier
0xfffffe00092c2ff4  _OSKextGetCurrentVersionString
0xfffffe00092c3008  _OSKextGetCurrentLoadTag
0xfffffe00092c301c  __stop
0xfffffe00092c3040  __ZNK15AOPAudioService19getCommandInterfaceEv.cold.1
0xfffffe00092c30a8  __ZN15AOPAudioService10_configureEP9IOService.cold.1
0xfffffe00092c313c  __ZN15AOPAudioService10_configureEP9IOService.cold.2
0xfffffe00092c31d0  __ZN15AOPAudioService10_configureEP9IOService.cold.3
0xfffffe00092c3264  __ZN15AOPAudioService10_configureEP9IOService.cold.4
0xfffffe00092c32f8  __ZN15AOPAudioService23_spuReportPacketHandlerEjyPKhmj.cold.1
0xfffffe00092c3384  __ZN15AOPAudioService23_spuReportPacketHandlerEjyPKhmj.cold.2
0xfffffe00092c3410  __ZN8IOPAudio10AOPService7Private40createCustomIOPMessageMapperFromRegistryEP15IORegistryEntry.cold.1
0xfffffe00092c3428  __ZN8IOPAudio10AOPService7Private40createCustomIOPMessageMapperFromRegistryEP15IORegistryEntry.cold.2
0xfffffe00092c3440  __ZN8IOPAudio10AOPService7Private40createCustomIOPMessageMapperFromRegistryEP15IORegistryEntry.cold.3
0xfffffe00092c34ac  __ZN8IOPAudio10AOPService7Private40createCustomIOPMessageMapperFromRegistryEP15IORegistryEntry.cold.4
0xfffffe00092c3518  __ZN8IOPAudio10AOPService7Private40createCustomIOPMessageMapperFromRegistryEP15IORegistryEntry.cold.5
0xfffffe00092c3584  __ZN8IOPAudio10AOPService7Private40createCustomIOPMessageMapperFromRegistryEP15IORegistryEntry.cold.6
0xfffffe00092c359c  __ZN8IOPAudio10AOPService7Private40createCustomIOPMessageMapperFromRegistryEP15IORegistryEntry.cold.8
0xfffffe00092c359c  __ZN8IOPAudio10AOPService7Private40createCustomIOPMessageMapperFromRegistryEP15IORegistryEntry.cold.7
0xfffffe00092c35b4  __ZN8IOPAudio10AOPService7Private40createCustomIOPMessageMapperFromRegistryEP15IORegistryEntry.cold.9
0xfffffe00092c35cc  __ZN8IOPAudio10AOPService7Private40createCustomIOPMessageMapperFromRegistryEP15IORegistryEntry.cold.10
0xfffffe00092c3638  __ZN8IOPAudio10AOPService7Private39processOptionalNameOverrideFromRegistryEP15IORegistryEntryP9IOService.cold.1
0xfffffe00092c36a4  __ZN8IOPAudio10AOPService7Private39processOptionalNameOverrideFromRegistryEP15IORegistryEntryP9IOService.cold.2
0xfffffe00092c3710  __ZN8IOPAudio10AOPService7Private39processOptionalNameOverrideFromRegistryEP15IORegistryEntryP9IOService.cold.3
0xfffffe00092c377c  __ZN8IOPAudio10AOPService7Private39processOptionalNameOverrideFromRegistryEP15IORegistryEntryP9IOService.cold.4
0xfffffe00092c37e8  __ZNK8IOPAudio10AOPService7Private16SPUReportMessage17iopTimeToAbsoluteEyRy.cold.1
0xfffffe00092c3854  __ZNK8IOPAudio10AOPService7Private16SPUReportMessage19iopTimeToContinuousEyRy.cold.1
0xfffffe00092c38c0  __ZN8IOPAudio19AOPCommandInterface14openConnectionERKNS0_14ConnectionInfoE.cold.1
0xfffffe00092c392c  __ZN8IOPAudio19AOPCommandInterface14openConnectionERKNS0_14ConnectionInfoE.cold.2
0xfffffe00092c3998  __ZN8IOPAudio19AOPCommandInterface14openConnectionERKNS0_14ConnectionInfoE.cold.3
0xfffffe00092c3a04  __ZN8IOPAudio19AOPCommandInterface14openConnectionERKNS0_14ConnectionInfoE.cold.4
0xfffffe00092c3a70  __ZN8IOPAudio19AOPCommandInterface14openConnectionERKNS0_14ConnectionInfoE.cold.5
0xfffffe00092c3adc  __ZN8IOPAudio19AOPCommandInterface15closeConnectionEv.cold.1
0xfffffe00092c3b48  __ZN8IOPAudio19AOPCommandInterface15closeConnectionEv.cold.2
0xfffffe00092c3bb4  __ZN8IOPAudio19AOPCommandInterface11getPropertyEjPvPm.cold.1
0xfffffe00092c3c20  __ZN8IOPAudio19AOPCommandInterface11getPropertyEjPvPm.cold.2
0xfffffe00092c3c8c  __ZN8IOPAudio19AOPCommandInterface11setPropertyEjPKvm.cold.1
0xfffffe00092c3cf8  __ZN8IOPAudio19AOPCommandInterface11setPropertyEjPKvm.cold.2
0xfffffe00092c3d64  __ZN8IOPAudio19AOPCommandInterface14performCommandEjPKvmPvPm.cold.1
0xfffffe00092c3dd0  __ZN8IOPAudio19AOPCommandInterface14performCommandEjPKvmPvPm.cold.2
0xfffffe00092c3e3c  __ZN8IOPAudio19AOPCommandInterface14performCommandEPN19RTKitAudioFramework6PacketEPvPm.cold.1
0xfffffe00092c3ea8  __ZN8IOPAudio19AOPCommandInterface14performCommandEPN19RTKitAudioFramework6PacketEPvPm.cold.2
0xfffffe00092c3f14  __ZN8IOPAudio19AOPCommandInterface14processMessageEPKN19RTKitAudioFramework7Message6PacketEPhPm.cold.1
0xfffffe00092c3f80  __ZN8IOPAudio19AOPCommandInterface14processMessageEPKN19RTKitAudioFramework7Message6PacketEPhPm.cold.2
0xfffffe000c7b63d4  __kext_apple_cc
0xfffffe000c7b63e0  __realmain
0xfffffe000c7b63e8  __antimain
0xfffffe0007e35d68  __ZL19AOPAudioService_ktv
0xfffffe0007e35da8  __ZZN8IOPAudio19AOPCommandInterfacenwEmE19kalloc_type_view_56
0xfffffe0007e35de8  __ZZN8IOPAudio19AOPCommandInterfacedlEPvmE19kalloc_type_view_56
0xfffffe00092c10b0  __ZN15AOPAudioService10_configureEP9IOService
0xfffffe000c7b63f0  __ZN15AOPAudioService10gMetaClassE
0xfffffe0007e351c8  __ZN15AOPAudioService10superClassE
0xfffffe00092c109c  __ZN15AOPAudioService18handleDidTerminateEv
0xfffffe00092c1224  __ZN15AOPAudioService23_spuReportPacketHandlerEjyPKhmj
0xfffffe00092c0fc4  __ZN15AOPAudioService4stopEP9IOService
0xfffffe00092c0e3c  __ZN15AOPAudioService5probeEP9IOServicePi
0xfffffe00092c0a90  __ZN15AOPAudioService9MetaClassC1Ev
0xfffffe00092c0cbc  __ZN15AOPAudioService9MetaClassC2Ev
0xfffffe0007e351c0  __ZN15AOPAudioService9metaClassE
0xfffffe00092c0b18  __ZN15AOPAudioServiceC1EPK11OSMetaClass
0xfffffe00092c0d84  __ZN15AOPAudioServiceC1Ev
0xfffffe00092c0ae0  __ZN15AOPAudioServiceC2EPK11OSMetaClass
0xfffffe00092c0de0  __ZN15AOPAudioServiceC2Ev
0xfffffe00092c0c50  __ZN15AOPAudioServiceD0Ev
0xfffffe00092c0bd0  __ZN15AOPAudioServiceD1Ev
0xfffffe00092c0b50  __ZN15AOPAudioServiceD2Ev
0xfffffe00092c0c94  __ZN15AOPAudioServicedlEPvm
0xfffffe00092c0d70  __ZN15AOPAudioServicenwEm
0xfffffe00092c195c  __ZN8IOPAudio10AOPService7Private20determineMessageTypeEjP12OSDictionary
0xfffffe00092c1a50  __ZN8IOPAudio10AOPService7Private39processOptionalNameOverrideFromRegistryEP15IORegistryEntryP9IOService
0xfffffe00092c15b4  __ZN8IOPAudio10AOPService7Private40createCustomIOPMessageMapperFromRegistryEP15IORegistryEntry
0xfffffe00092c2710  __ZN8IOPAudio19AOPCommandInterface11convertTimeERKNS_31TimeConversionCommandDescriptorE
0xfffffe00092c21d4  __ZN8IOPAudio19AOPCommandInterface11getPropertyEjPvPm
0xfffffe00092c2228  __ZN8IOPAudio19AOPCommandInterface11setPropertyEjPKvm
0xfffffe00092c1f44  __ZN8IOPAudio19AOPCommandInterface14openConnectionERKNS0_14ConnectionInfoE
0xfffffe00092c2608  __ZN8IOPAudio19AOPCommandInterface14performCommandEPN19RTKitAudioFramework6PacketEPvPm
0xfffffe00092c227c  __ZN8IOPAudio19AOPCommandInterface14performCommandEjPKvmPvPm
0xfffffe00092c268c  __ZN8IOPAudio19AOPCommandInterface14processMessageEPKN19RTKitAudioFramework7Message6PacketEPhPm
0xfffffe00092c20cc  __ZN8IOPAudio19AOPCommandInterface15closeConnectionEv
0xfffffe000c7b63d8  __ZN8IOPAudio25kAOPServiceCompatibleNameE
0xfffffe00092c0cac  __ZNK15AOPAudioService12getMetaClassEv
0xfffffe00092c1078  __ZNK15AOPAudioService19getCommandInterfaceEv
0xfffffe00092c0d04  __ZNK15AOPAudioService9MetaClass5allocEv
0xfffffe00092c1d48  __ZNK8IOPAudio10AOPService7Private16SPUReportMessage10getOptionsEv
0xfffffe00092c1d30  __ZNK8IOPAudio10AOPService7Private16SPUReportMessage10getPayloadEv
0xfffffe00092c1ce0  __ZNK8IOPAudio10AOPService7Private16SPUReportMessage12getTimeStampEv
0xfffffe00092c1cd4  __ZNK8IOPAudio10AOPService7Private16SPUReportMessage13getPacketTypeEv
0xfffffe00092c1d3c  __ZNK8IOPAudio10AOPService7Private16SPUReportMessage14getPayloadSizeEv
0xfffffe00092c1d54  __ZNK8IOPAudio10AOPService7Private16SPUReportMessage17iopTimeToAbsoluteEyRy
0xfffffe00092c1d9c  __ZNK8IOPAudio10AOPService7Private16SPUReportMessage19iopTimeToContinuousEyRy
0xfffffe00092c1ebc  __ZNK8IOPAudio10AOPService7Private26RTKitAudioSPUReportMessage10getOptionsEv
0xfffffe00092c1e7c  __ZNK8IOPAudio10AOPService7Private26RTKitAudioSPUReportMessage10getPayloadEv
0xfffffe00092c1e1c  __ZNK8IOPAudio10AOPService7Private26RTKitAudioSPUReportMessage12getTimeStampEv
0xfffffe00092c1e00  __ZNK8IOPAudio10AOPService7Private26RTKitAudioSPUReportMessage13getPacketTypeEv
0xfffffe00092c1e94  __ZNK8IOPAudio10AOPService7Private26RTKitAudioSPUReportMessage14getPayloadSizeEv
0xfffffe00092c1de4  __ZNK8IOPAudio10AOPService7Private26RTKitAudioSPUReportMessage16getDestinationIDEv
0xfffffe0007e351d0  __ZTV15AOPAudioService
0xfffffe0007e35a90  __ZTVN15AOPAudioService9MetaClassE
0xfffffe0007e35b98  __ZTVN8IOPAudio10AOPService7Private16SPUReportMessageE
0xfffffe0007e35c08  __ZTVN8IOPAudio10AOPService7Private26RTKitAudioSPUReportMessageE
0xfffffe0007e35c78  __ZTVN8IOPAudio19AOPCommandInterfaceE
0xfffffe000c7b6310  _kmod_info
0x0000000000000000  _IOFreeData
0x0000000000000000  _IOFreeTypeImpl
0x0000000000000000  _IOMallocData
0x0000000000000000  _IOMallocTypeImpl
0x0000000000000000  _OSObject_typed_operator_delete
0x0000000000000000  _OSObject_typed_operator_new
0x0000000000000000  __ZN11OSMetaClass21_RESERVEDOSMetaClass0Ev
0x0000000000000000  __ZN11OSMetaClass21_RESERVEDOSMetaClass1Ev
0x0000000000000000  __ZN11OSMetaClass21_RESERVEDOSMetaClass2Ev
0x0000000000000000  __ZN11OSMetaClass21_RESERVEDOSMetaClass3Ev
0x0000000000000000  __ZN11OSMetaClass21_RESERVEDOSMetaClass4Ev
0x0000000000000000  __ZN11OSMetaClass21_RESERVEDOSMetaClass5Ev
0x0000000000000000  __ZN11OSMetaClass21_RESERVEDOSMetaClass6Ev
0x0000000000000000  __ZN11OSMetaClass21_RESERVEDOSMetaClass7Ev
0x0000000000000000  __ZN11OSMetaClassC2EPKcPKS_j
0x0000000000000000  __ZN11OSMetaClassD2Ev
0x0000000000000000  __ZN12OSDictionary12withCapacityEj
0x0000000000000000  __ZN12OSDictionary9setObjectEPK8OSStringRK11OSSharedPtrIK15OSMetaClassBaseE
0x0000000000000000  __ZN15IOPAudioService10gMetaClassE
0x0000000000000000  __ZN15IOPAudioService10handleOpenEP9IOServicejPv
0x0000000000000000  __ZN15IOPAudioService11handleCloseEP9IOServicej
0x0000000000000000  __ZN15IOPAudioService12didTerminateEP9IOServicejPb
0x0000000000000000  __ZN15IOPAudioService13willTerminateEP9IOServicej
0x0000000000000000  __ZN15IOPAudioService14performCommandERKN8IOPAudio17CommandDescriptorE
0x0000000000000000  __ZN15IOPAudioService4freeEv
0x0000000000000000  __ZN15IOPAudioService4openEP9IOServiceRNS_12ClientConfigE
0x0000000000000000  __ZN15IOPAudioService5startEP9IOService
0x0000000000000000  __ZN15IOPAudioServiceC2EPK11OSMetaClass
0x0000000000000000  __ZN15IOPAudioServiceD2Ev
0x0000000000000000  __ZN15IORegistryEntry11detachAboveEPK15IORegistryPlane
0x0000000000000000  __ZN15IORegistryEntry11setLocationEPK8OSSymbolPK15IORegistryPlane
0x0000000000000000  __ZN15IORegistryEntry11setLocationEPKcPK15IORegistryPlane
0x0000000000000000  __ZN15IORegistryEntry11setPropertyEPK8OSStringP8OSObject
0x0000000000000000  __ZN15IORegistryEntry11setPropertyEPK8OSSymbolP8OSObject
0x0000000000000000  __ZN15IORegistryEntry11setPropertyEPKcP8OSObject
0x0000000000000000  __ZN15IORegistryEntry11setPropertyEPKcPvj
0x0000000000000000  __ZN15IORegistryEntry11setPropertyEPKcS1_
0x0000000000000000  __ZN15IORegistryEntry11setPropertyEPKcb
0x0000000000000000  __ZN15IORegistryEntry11setPropertyEPKcyj
0x0000000000000000  __ZN15IORegistryEntry13attachToChildEPS_PK15IORegistryPlane
0x0000000000000000  __ZN15IORegistryEntry13childFromPathEPKcPK15IORegistryPlanePcPi
0x0000000000000000  __ZN15IORegistryEntry13setPropertiesEP8OSObject
0x0000000000000000  __ZN15IORegistryEntry14attachToParentEPS_PK15IORegistryPlane
0x0000000000000000  __ZN15IORegistryEntry14removePropertyEPK8OSString
0x0000000000000000  __ZN15IORegistryEntry14removePropertyEPK8OSSymbol
0x0000000000000000  __ZN15IORegistryEntry14removePropertyEPKc
0x0000000000000000  __ZN15IORegistryEntry15detachFromChildEPS_PK15IORegistryPlane
0x0000000000000000  __ZN15IORegistryEntry16detachFromParentEPS_PK15IORegistryPlane
0x0000000000000000  __ZN15IORegistryEntry16setPropertyTableEP12OSDictionary
0x0000000000000000  __ZN15IORegistryEntry17runPropertyActionEPFiP8OSObjectPvS2_S2_S2_ES1_S2_S2_S2_S2_
0x0000000000000000  __ZN15IORegistryEntry25_RESERVEDIORegistryEntry0Ev
0x0000000000000000  __ZN15IORegistryEntry25_RESERVEDIORegistryEntry1Ev
0x0000000000000000  __ZN15IORegistryEntry25_RESERVEDIORegistryEntry2Ev
0x0000000000000000  __ZN15IORegistryEntry25_RESERVEDIORegistryEntry3Ev
0x0000000000000000  __ZN15IORegistryEntry25_RESERVEDIORegistryEntry4Ev
0x0000000000000000  __ZN15IORegistryEntry25_RESERVEDIORegistryEntry5Ev
0x0000000000000000  __ZN15IORegistryEntry25_RESERVEDIORegistryEntry6Ev
0x0000000000000000  __ZN15IORegistryEntry25_RESERVEDIORegistryEntry7Ev
0x0000000000000000  __ZN15IORegistryEntry25_RESERVEDIORegistryEntry8Ev
0x0000000000000000  __ZN15IORegistryEntry25_RESERVEDIORegistryEntry9Ev
0x0000000000000000  __ZN15IORegistryEntry26_RESERVEDIORegistryEntry10Ev
0x0000000000000000  __ZN15IORegistryEntry26_RESERVEDIORegistryEntry11Ev
0x0000000000000000  __ZN15IORegistryEntry26_RESERVEDIORegistryEntry12Ev
0x0000000000000000  __ZN15IORegistryEntry26_RESERVEDIORegistryEntry13Ev
0x0000000000000000  __ZN15IORegistryEntry26_RESERVEDIORegistryEntry14Ev
0x0000000000000000  __ZN15IORegistryEntry26_RESERVEDIORegistryEntry15Ev
0x0000000000000000  __ZN15IORegistryEntry26_RESERVEDIORegistryEntry16Ev
0x0000000000000000  __ZN15IORegistryEntry26_RESERVEDIORegistryEntry17Ev
0x0000000000000000  __ZN15IORegistryEntry26_RESERVEDIORegistryEntry18Ev
0x0000000000000000  __ZN15IORegistryEntry26_RESERVEDIORegistryEntry19Ev
0x0000000000000000  __ZN15IORegistryEntry26_RESERVEDIORegistryEntry20Ev
0x0000000000000000  __ZN15IORegistryEntry26_RESERVEDIORegistryEntry21Ev
0x0000000000000000  __ZN15IORegistryEntry26_RESERVEDIORegistryEntry22Ev
0x0000000000000000  __ZN15IORegistryEntry26_RESERVEDIORegistryEntry23Ev
0x0000000000000000  __ZN15IORegistryEntry26_RESERVEDIORegistryEntry24Ev
0x0000000000000000  __ZN15IORegistryEntry26_RESERVEDIORegistryEntry25Ev
0x0000000000000000  __ZN15IORegistryEntry26_RESERVEDIORegistryEntry26Ev
0x0000000000000000  __ZN15IORegistryEntry26_RESERVEDIORegistryEntry27Ev
0x0000000000000000  __ZN15IORegistryEntry26_RESERVEDIORegistryEntry28Ev
0x0000000000000000  __ZN15IORegistryEntry26_RESERVEDIORegistryEntry29Ev
0x0000000000000000  __ZN15IORegistryEntry26_RESERVEDIORegistryEntry30Ev
0x0000000000000000  __ZN15IORegistryEntry26_RESERVEDIORegistryEntry31Ev
0x0000000000000000  __ZN15IORegistryEntry7setNameEPK8OSSymbolPK15IORegistryPlane
0x0000000000000000  __ZN15IORegistryEntry7setNameEPKcPK15IORegistryPlane
0x0000000000000000  __ZN15IORegistryEntry9detachAllEPK15IORegistryPlane
0x0000000000000000  __ZN15OSMetaClassBase12safeMetaCastEPKS_PK11OSMetaClass
0x0000000000000000  __ZN15OSMetaClassBase25_RESERVEDOSMetaClassBase0Ev
0x0000000000000000  __ZN15OSMetaClassBase25_RESERVEDOSMetaClassBase1Ev
0x0000000000000000  __ZN15OSMetaClassBase25_RESERVEDOSMetaClassBase2Ev
0x0000000000000000  __ZN15OSMetaClassBase25_RESERVEDOSMetaClassBase3Ev
0x0000000000000000  __ZN15OSMetaClassBase25_RESERVEDOSMetaClassBase4Ev
0x0000000000000000  __ZN15OSMetaClassBase25_RESERVEDOSMetaClassBase5Ev
0x0000000000000000  __ZN15OSMetaClassBase25_RESERVEDOSMetaClassBase6Ev
0x0000000000000000  __ZN15OSMetaClassBase25_RESERVEDOSMetaClassBase7Ev
0x0000000000000000  __ZN15OSMetaClassBase8DispatchE5IORPC
0x0000000000000000  __ZN17AppleSPUInterface11GetPropertyEjPvPmb
0x0000000000000000  __ZN17AppleSPUInterface11SetPropertyEjPKvmb
0x0000000000000000  __ZN17AppleSPUInterface14PerformCommandEjPKvmPvPmb
0x0000000000000000  __ZN17AppleSPUInterface29registerReportPacketActionNewEP8OSObjectPFvS1_jyPKhmjE
0x0000000000000000  __ZN17AppleSPUInterface9metaClassE
0x0000000000000000  __ZN20AppleSPUAppInterface9metaClassE
0x0000000000000000  __ZN6OSData9metaClassE
0x0000000000000000  __ZN8IOPAudio16CommandInterface10freeMemoryEPvm
0x0000000000000000  __ZN8IOPAudio16CommandInterface12memoryAccessERKNS_29MemoryAccessCommandDescriptorE
0x0000000000000000  __ZN8IOPAudio16CommandInterface14allocateMemoryEm
0x0000000000000000  __ZN8IOPAudio16CommandInterface15getNodePropertyERKNS_32GetNodePropertyCommandDescriptorE
0x0000000000000000  __ZN8IOPAudio16CommandInterface15setNodePropertyERKNS_32SetNodePropertyCommandDescriptorE
0x0000000000000000  __ZN8IOPAudio16CommandInterface4initEjj
0x0000000000000000  __ZN8IOPAudio16CommandInterface6attachERKNS_23AttachCommandDescriptorE
0x0000000000000000  __ZN8IOPAudio6Helper15stringifyUInt32Ej
0x0000000000000000  __ZN8OSNumber10withNumberEyj
0x0000000000000000  __ZN8OSNumber9metaClassE
0x0000000000000000  __ZN8OSObject18_RESERVEDOSObject0Ev
0x0000000000000000  __ZN8OSObject18_RESERVEDOSObject1Ev
0x0000000000000000  __ZN8OSObject18_RESERVEDOSObject2Ev
0x0000000000000000  __ZN8OSObject18_RESERVEDOSObject3Ev
0x0000000000000000  __ZN8OSObject18_RESERVEDOSObject4Ev
0x0000000000000000  __ZN8OSObject18_RESERVEDOSObject5Ev
0x0000000000000000  __ZN8OSObject18_RESERVEDOSObject6Ev
0x0000000000000000  __ZN8OSObject18_RESERVEDOSObject7Ev
0x0000000000000000  __ZN8OSObject18_RESERVEDOSObject8Ev
0x0000000000000000  __ZN8OSObject18_RESERVEDOSObject9Ev
0x0000000000000000  __ZN8OSObject19_RESERVEDOSObject10Ev
0x0000000000000000  __ZN8OSObject19_RESERVEDOSObject11Ev
0x0000000000000000  __ZN8OSObject19_RESERVEDOSObject12Ev
0x0000000000000000  __ZN8OSObject19_RESERVEDOSObject13Ev
0x0000000000000000  __ZN8OSObject19_RESERVEDOSObject14Ev
0x0000000000000000  __ZN8OSObject19_RESERVEDOSObject15Ev
0x0000000000000000  __ZN8OSObject4initEv
0x0000000000000000  __ZN8OSString11withCStringEPKc
0x0000000000000000  __ZN8OSString17withCStringNoCopyEPKc
0x0000000000000000  __ZN9IOService10adjustBusyEi
0x0000000000000000  __ZN9IOService10joinPMtreeEPS_
0x0000000000000000  __ZN9IOService12getBusyStateEv
0x0000000000000000  __ZN9IOService12getResourcesEv
0x0000000000000000  __ZN9IOService12requestProbeEj
0x0000000000000000  __ZN9IOService12tellChangeUpEm
0x0000000000000000  __ZN9IOService12updateReportEP19IOReportChannelListjPvS2_
0x0000000000000000  __ZN9IOService13addPowerChildEPS_
0x0000000000000000  __ZN9IOService13askChangeDownEm
0x0000000000000000  __ZN9IOService13matchLocationEPS_
0x0000000000000000  __ZN9IOService13messageClientEjP8OSObjectPvm
0x0000000000000000  __ZN9IOService13newUserClientEP4taskPvjP12OSDictionaryPP12IOUserClient
0x0000000000000000  __ZN9IOService13newUserClientEP4taskPvjPP12IOUserClient
0x0000000000000000  __ZN9IOService13setPowerStateEmPS_
0x0000000000000000  __ZN9IOService14activityTickleEmm
0x0000000000000000  __ZN9IOService14applyToClientsEPFvPS_PvES1_
0x0000000000000000  __ZN9IOService14causeInterruptEi
0x0000000000000000  __ZN9IOService14messageClientsEjPvm
0x0000000000000000  __ZN9IOService14tellChangeDownEm
0x0000000000000000  __ZN9IOService15comparePropertyEP12OSDictionaryPK8OSString
0x0000000000000000  __ZN9IOService15comparePropertyEP12OSDictionaryPKc
0x0000000000000000  __ZN9IOService15configureReportEP19IOReportChannelListjPvS2_
0x0000000000000000  __ZN9IOService15enableInterruptEi
0x0000000000000000  __ZN9IOService15errnoFromReturnEi
0x0000000000000000  __ZN9IOService15getDeviceMemoryEv
0x0000000000000000  __ZN9IOService15nextIdleTimeoutEyyj
0x0000000000000000  __ZN9IOService15powerChangeDoneEm
0x0000000000000000  __ZN9IOService15registerServiceEj
0x0000000000000000  __ZN9IOService15setDeviceMemoryEP7OSArray
0x0000000000000000  __ZN9IOService15terminateClientEPS_j
0x0000000000000000  __ZN9IOService16allowPowerChangeEm
0x0000000000000000  __ZN9IOService16applyToProvidersEPFvPS_PvES1_
0x0000000000000000  __ZN9IOService16disableInterruptEi
0x0000000000000000  __ZN9IOService16getInterruptTypeEiPi
0x0000000000000000  __ZN9IOService16registerInterestEPK8OSSymbolPFiPvS3_jPS_S3_mES3_S3_
0x0000000000000000  __ZN9IOService16removePowerChildEP17IOPowerConnection
0x0000000000000000  __ZN9IOService16requestTerminateEPS_j
0x0000000000000000  __ZN9IOService16stringFromReturnEi
0x0000000000000000  __ZN9IOService16tellNoChangeDownEm
0x0000000000000000  __ZN9IOService17addNeededResourceEPKc
0x0000000000000000  __ZN9IOService17applyToInterestedEPK8OSSymbolPFvP8OSObjectPvES5_
0x0000000000000000  __ZN9IOService17cancelPowerChangeEm
0x0000000000000000  __ZN9IOService17comparePropertiesEP12OSDictionaryP12OSCollection
0x0000000000000000  __ZN9IOService17getAggressivenessEmPm
0x0000000000000000  __ZN9IOService17registerInterruptEiP8OSObjectPFvS1_PvPS_iES2_
0x0000000000000000  __ZN9IOService17setAggressivenessEmm
0x0000000000000000  __ZN9IOService18lockForArbitrationEb
0x0000000000000000  __ZN9IOService18matchPropertyTableEP12OSDictionary
0x0000000000000000  __ZN9IOService18matchPropertyTableEP12OSDictionaryPi
0x0000000000000000  __ZN9IOService18setIdleTimerPeriodEm
0x0000000000000000  __ZN9IOService18systemWillShutdownEj
0x0000000000000000  __ZN9IOService19_RESERVEDIOService0Ev
0x0000000000000000  __ZN9IOService19_RESERVEDIOService1Ev
0x0000000000000000  __ZN9IOService19_RESERVEDIOService2Ev
0x0000000000000000  __ZN9IOService19_RESERVEDIOService3Ev
0x0000000000000000  __ZN9IOService19_RESERVEDIOService4Ev
0x0000000000000000  __ZN9IOService19_RESERVEDIOService5Ev
0x0000000000000000  __ZN9IOService19_RESERVEDIOService6Ev
0x0000000000000000  __ZN9IOService19_RESERVEDIOService7Ev
0x0000000000000000  __ZN9IOService19_RESERVEDIOService8Ev
0x0000000000000000  __ZN9IOService19_RESERVEDIOService9Ev
0x0000000000000000  __ZN9IOService19registerPowerDriverEPS_P14IOPMPowerStatem
0x0000000000000000  __ZN9IOService19unregisterInterruptEi
0x0000000000000000  __ZN9IOService20_RESERVEDIOService10Ev
0x0000000000000000  __ZN9IOService20_RESERVEDIOService11Ev
0x0000000000000000  __ZN9IOService20_RESERVEDIOService12Ev
0x0000000000000000  __ZN9IOService20_RESERVEDIOService13Ev
0x0000000000000000  __ZN9IOService20_RESERVEDIOService14Ev
0x0000000000000000  __ZN9IOService20_RESERVEDIOService15Ev
0x0000000000000000  __ZN9IOService20_RESERVEDIOService16Ev
0x0000000000000000  __ZN9IOService20_RESERVEDIOService17Ev
0x0000000000000000  __ZN9IOService20_RESERVEDIOService18Ev
0x0000000000000000  __ZN9IOService20_RESERVEDIOService19Ev
0x0000000000000000  __ZN9IOService20_RESERVEDIOService20Ev
0x0000000000000000  __ZN9IOService20_RESERVEDIOService21Ev
0x0000000000000000  __ZN9IOService20_RESERVEDIOService22Ev
0x0000000000000000  __ZN9IOService20_RESERVEDIOService23Ev
0x0000000000000000  __ZN9IOService20_RESERVEDIOService24Ev
0x0000000000000000  __ZN9IOService20_RESERVEDIOService25Ev
0x0000000000000000  __ZN9IOService20_RESERVEDIOService26Ev
0x0000000000000000  __ZN9IOService20_RESERVEDIOService27Ev
0x0000000000000000  __ZN9IOService20_RESERVEDIOService28Ev
0x0000000000000000  __ZN9IOService20_RESERVEDIOService29Ev
0x0000000000000000  __ZN9IOService20_RESERVEDIOService30Ev
0x0000000000000000  __ZN9IOService20_RESERVEDIOService31Ev
0x0000000000000000  __ZN9IOService20_RESERVEDIOService32Ev
0x0000000000000000  __ZN9IOService20_RESERVEDIOService33Ev
0x0000000000000000  __ZN9IOService20_RESERVEDIOService34Ev
0x0000000000000000  __ZN9IOService20_RESERVEDIOService35Ev
0x0000000000000000  __ZN9IOService20_RESERVEDIOService36Ev
0x0000000000000000  __ZN9IOService20_RESERVEDIOService37Ev
0x0000000000000000  __ZN9IOService20_RESERVEDIOService38Ev
0x0000000000000000  __ZN9IOService20_RESERVEDIOService39Ev
0x0000000000000000  __ZN9IOService20_RESERVEDIOService40Ev
0x0000000000000000  __ZN9IOService20_RESERVEDIOService41Ev
0x0000000000000000  __ZN9IOService20_RESERVEDIOService42Ev
0x0000000000000000  __ZN9IOService20_RESERVEDIOService43Ev
0x0000000000000000  __ZN9IOService20_RESERVEDIOService44Ev
0x0000000000000000  __ZN9IOService20_RESERVEDIOService45Ev
0x0000000000000000  __ZN9IOService20_RESERVEDIOService46Ev
0x0000000000000000  __ZN9IOService20_RESERVEDIOService47Ev
0x0000000000000000  __ZN9IOService20callPlatformFunctionEPK8OSSymbolbPvS3_S3_S3_
0x0000000000000000  __ZN9IOService20callPlatformFunctionEPKcbPvS2_S2_S2_
0x0000000000000000  __ZN9IOService20getDeviceMemoryCountEv
0x0000000000000000  __ZN9IOService20unlockForArbitrationEv
0x0000000000000000  __ZN9IOService21powerStateDidChangeToEmmPS_
0x0000000000000000  __ZN9IOService22copyClientWithCategoryEPK8OSSymbol
0x0000000000000000  __ZN9IOService22powerStateWillChangeToEmmPS_
0x0000000000000000  __ZN9IOService23acknowledgeNotificationEPvj
0x0000000000000000  __ZN9IOService23requestPowerDomainStateEmP17IOPowerConnectionm
0x0000000000000000  __ZN9IOService24getDeviceMemoryWithIndexEj
0x0000000000000000  __ZN9IOService24mapDeviceMemoryWithIndexEjj
0x0000000000000000  __ZN9IOService24powerStateForDomainStateEm
0x0000000000000000  __ZN9IOService27maxCapabilityForDomainStateEm
0x0000000000000000  __ZN9IOService31initialPowerStateForDomainStateEm
0x0000000000000000  __ZN9IOService4initEP12OSDictionary
0x0000000000000000  __ZN9IOService4initEP15IORegistryEntryPK15IORegistryPlane
0x0000000000000000  __ZN9IOService4openEPS_jPv
0x0000000000000000  __ZN9IOService5closeEPS_j
0x0000000000000000  __ZN9IOService6PMinitEv
0x0000000000000000  __ZN9IOService6PMstopEv
0x0000000000000000  __ZN9IOService6attachEPS_
0x0000000000000000  __ZN9IOService6detachEPS_
0x0000000000000000  __ZN9IOService7messageEjPS_Pv
0x0000000000000000  __ZN9IOService8DispatchE5IORPC
0x0000000000000000  __ZN9IOService8finalizeEj
0x0000000000000000  __ZN9IOService9terminateEj
0x0000000000000000  __ZNK11OSMetaClass12getMetaClassEv
0x0000000000000000  __ZNK11OSMetaClass12taggedRetainEPKv
0x0000000000000000  __ZNK11OSMetaClass13taggedReleaseEPKv
0x0000000000000000  __ZNK11OSMetaClass13taggedReleaseEPKvi
0x0000000000000000  __ZNK11OSMetaClass14getRetainCountEv
0x0000000000000000  __ZNK11OSMetaClass19instanceConstructedEv
0x0000000000000000  __ZNK11OSMetaClass6retainEv
0x0000000000000000  __ZNK11OSMetaClass7releaseEi
0x0000000000000000  __ZNK11OSMetaClass7releaseEv
0x0000000000000000  __ZNK11OSMetaClass9serializeEP11OSSerialize
0x0000000000000000  __ZNK15IORegistryEntry11compareNameEP8OSStringPS1_
0x0000000000000000  __ZNK15IORegistryEntry11getLocationEPK15IORegistryPlane
0x0000000000000000  __ZNK15IORegistryEntry11getPropertyEPK8OSString
0x0000000000000000  __ZNK15IORegistryEntry11getPropertyEPK8OSStringPK15IORegistryPlanej
0x0000000000000000  __ZNK15IORegistryEntry11getPropertyEPK8OSSymbol
0x0000000000000000  __ZNK15IORegistryEntry11getPropertyEPK8OSSymbolPK15IORegistryPlanej
0x0000000000000000  __ZNK15IORegistryEntry11getPropertyEPKc
0x0000000000000000  __ZNK15IORegistryEntry11getPropertyEPKcPK15IORegistryPlanej
0x0000000000000000  __ZNK15IORegistryEntry12compareNamesEP8OSObjectPP8OSString
0x0000000000000000  __ZNK15IORegistryEntry12copyLocationEPK15IORegistryPlane
0x0000000000000000  __ZNK15IORegistryEntry12copyPropertyEPK8OSString
0x0000000000000000  __ZNK15IORegistryEntry12copyPropertyEPK8OSStringPK15IORegistryPlanej
0x0000000000000000  __ZNK15IORegistryEntry12copyPropertyEPK8OSSymbol
0x0000000000000000  __ZNK15IORegistryEntry12copyPropertyEPK8OSSymbolPK15IORegistryPlanej
0x0000000000000000  __ZNK15IORegistryEntry12copyPropertyEPKc
0x0000000000000000  __ZNK15IORegistryEntry12copyPropertyEPKcPK15IORegistryPlanej
0x0000000000000000  __ZNK15IORegistryEntry13getChildEntryEPK15IORegistryPlane
0x0000000000000000  __ZNK15IORegistryEntry14applyToParentsEPFvPS_PvES1_PK15IORegistryPlane
0x0000000000000000  __ZNK15IORegistryEntry14copyChildEntryEPK15IORegistryPlane
0x0000000000000000  __ZNK15IORegistryEntry14getParentEntryEPK15IORegistryPlane
0x0000000000000000  __ZNK15IORegistryEntry15applyToChildrenEPFvPS_PvES1_PK15IORegistryPlane
0x0000000000000000  __ZNK15IORegistryEntry15copyParentEntryEPK15IORegistryPlane
0x0000000000000000  __ZNK15IORegistryEntry16getChildIteratorEPK15IORegistryPlane
0x0000000000000000  __ZNK15IORegistryEntry16getPathComponentEPcPiPK15IORegistryPlane
0x0000000000000000  __ZNK15IORegistryEntry17getParentIteratorEPK15IORegistryPlane
0x0000000000000000  __ZNK15IORegistryEntry24dictionaryWithPropertiesEv
0x0000000000000000  __ZNK15IORegistryEntry7getNameEPK15IORegistryPlane
0x0000000000000000  __ZNK15IORegistryEntry7getPathEPcPiPK15IORegistryPlane
0x0000000000000000  __ZNK15IORegistryEntry7inPlaneEPK15IORegistryPlane
0x0000000000000000  __ZNK15IORegistryEntry7isChildEPS_PK15IORegistryPlaneb
0x0000000000000000  __ZNK15IORegistryEntry8copyNameEPK15IORegistryPlane
0x0000000000000000  __ZNK15IORegistryEntry8getDepthEPK15IORegistryPlane
0x0000000000000000  __ZNK15IORegistryEntry8isParentEPS_PK15IORegistryPlaneb
0x0000000000000000  __ZNK15OSMetaClassBase9isEqualToEPKS_
0x0000000000000000  __ZNK17AppleSPUInterface23sputime_to_absolutetimeEy
0x0000000000000000  __ZNK17AppleSPUInterface25sputime_to_continuoustimeEy
0x0000000000000000  __ZNK8IOPAudio16CommandInterface12getMessageIDEb
0x0000000000000000  __ZNK8OSObject12taggedRetainEPKv
0x0000000000000000  __ZNK8OSObject13taggedReleaseEPKv
0x0000000000000000  __ZNK8OSObject13taggedReleaseEPKvi
0x0000000000000000  __ZNK8OSObject14getRetainCountEv
0x0000000000000000  __ZNK8OSObject6retainEv
0x0000000000000000  __ZNK8OSObject7releaseEi
0x0000000000000000  __ZNK8OSObject7releaseEv
0x0000000000000000  __ZNK8OSObject9serializeEP11OSSerialize
0x0000000000000000  __ZNK9IOService11getProviderEv
0x0000000000000000  __ZNK9IOService11getWorkLoopEv
0x0000000000000000  __ZNK9IOService12handleIsOpenEPKS_
0x0000000000000000  __ZNK9IOService17getClientIteratorEv
0x0000000000000000  __ZNK9IOService19getProviderIteratorEv
0x0000000000000000  __ZNK9IOService19serializePropertiesEP11OSSerialize
0x0000000000000000  __ZNK9IOService21getOpenClientIteratorEv
0x0000000000000000  __ZNK9IOService23getOpenProviderIteratorEv
0x0000000000000000  __ZNK9IOService6isOpenEPKS_
0x0000000000000000  __ZNK9IOService8getStateEv
0x0000000000000000  __ZNK9IOService9getClientEv
0x0000000000000000  __ZTV15IOPAudioService
0x0000000000000000  __ZdlPv
0x0000000000000000  ___stack_chk_fail
0x0000000000000000  ___stack_chk_guard
0x0000000000000000  __os_log_default
0x0000000000000000  __os_log_internal
0x0000000000000000  _gIODTCompatibleKey
0x0000000000000000  _memmove
0x0000000000000000  _panic
