0xfffffe00092ccee8  __ZN10AppleA7IOP9MetaClassD1Ev
0xfffffe00092cd9f4  __ZN10AppleA7IOP14_outboxHandlerEP22IOInterruptEventSource_vfpthunk_
0xfffffe00092cda28  __ZN10AppleA7IOP13_inboxHandlerEP22IOInterruptEventSource_vfpthunk_
0xfffffe00092cfa4c  __ZN10AppleA7IOP7stopCPUEv
0xfffffe00092cfa84  __ZN8AppleIOP10logTimeoutEj
0xfffffe00092cfa94  __ZN8AppleIOP10_lockInboxEv
0xfffffe00092cfad8  __ZN8AppleIOP12_unlockInboxEv
0xfffffe00092cfb18  __ZN8AppleIOP11_lockOutboxEv
0xfffffe00092cfb5c  __ZN8AppleIOP13_unlockOutboxEv
0xfffffe00092cfb9c  __ZN10AppleA7IOP4_regEj
0xfffffe00092cfbac  __ZN10AppleA7IOP9MetaClassD0Ev
0xfffffe00092cfbb4  __ZN9os_detail21panic_trapping_policy4trapEPKc
0xfffffe00092cfbe4  __GLOBAL__sub_I_AppleA7IOP.cpp
0xfffffe00092cfc34  __GLOBAL__D_a
0xfffffe00092cfc8c  __ZN13AppleA7IOPNub9MetaClassD1Ev
0xfffffe00092d0140  __ZN13AppleA7IOPNub9MetaClassD0Ev
0xfffffe00092d0148  __GLOBAL__sub_I_AppleA7IOPNub.cpp
0xfffffe00092d0198  __GLOBAL__D_a
0xfffffe00092d030c  __ZN19AppleWrapperMailbox9MetaClassD1Ev
0xfffffe00092d0ad8  __ZN19AppleWrapperMailbox14_outboxHandlerEP22IOInterruptEventSource_vfpthunk_
0xfffffe00092d0b0c  __ZN19AppleWrapperMailbox13_inboxHandlerEP22IOInterruptEventSource_vfpthunk_
0xfffffe00092d1c98  __ZN19AppleWrapperMailbox7stopCPUEv
0xfffffe00092d1cd0  __ZN8AppleIOP10logTimeoutEj
0xfffffe00092d1ce0  __ZN8AppleIOP10_lockInboxEv
0xfffffe00092d1d24  __ZN8AppleIOP12_unlockInboxEv
0xfffffe00092d1d64  __ZN8AppleIOP11_lockOutboxEv
0xfffffe00092d1da8  __ZN8AppleIOP13_unlockOutboxEv
0xfffffe00092d1de8  __ZN19AppleWrapperMailbox4_regEj
0xfffffe00092d1df8  __ZN19AppleWrapperMailbox9MetaClassD0Ev
0xfffffe00092d1e00  __GLOBAL__sub_I_AppleWrapperMailbox.cpp
0xfffffe00092d1e50  __GLOBAL__D_a
0xfffffe00092d1ea8  __ZN8AppleIOP9MetaClassD1Ev
0xfffffe00092d2008  __ZN8AppleIOP9MetaClassD0Ev
0xfffffe00092d2010  __ZN8AppleIOP10logTimeoutEj
0xfffffe00092d2020  __ZN8AppleIOP10_lockInboxEv
0xfffffe00092d2064  __ZN8AppleIOP12_unlockInboxEv
0xfffffe00092d20a4  __ZN8AppleIOP11_lockOutboxEv
0xfffffe00092d20e8  __ZN8AppleIOP13_unlockOutboxEv
0xfffffe00092d2128  __GLOBAL__sub_I_AppleIOP.cpp
0xfffffe00092d2178  __GLOBAL__D_a
0xfffffe00092d2978  __start
0xfffffe00092d299c  _OSKextGetCurrentIdentifier
0xfffffe00092d29b0  _OSKextGetCurrentVersionString
0xfffffe00092d29c4  _OSKextGetCurrentLoadTag
0xfffffe00092d29d8  __stop
0xfffffe00092d29fc  __ZN10AppleA7IOP5startEP9IOService.cold.1
0xfffffe00092d2a48  __ZN10AppleA7IOP5startEP9IOService.cold.2
0xfffffe00092d2a94  __ZN10AppleA7IOP5startEP9IOService.cold.3
0xfffffe00092d2ae0  __ZN10AppleA7IOP5startEP9IOService.cold.4
0xfffffe00092d2b2c  __ZN10AppleA7IOP5startEP9IOService.cold.5
0xfffffe00092d2b78  __ZN10AppleA7IOP5startEP9IOService.cold.6
0xfffffe00092d2bc4  __ZN10AppleA7IOP5startEP9IOService.cold.7
0xfffffe00092d2c10  __ZN10AppleA7IOP5startEP9IOService.cold.8
0xfffffe00092d2c5c  __ZN10AppleA7IOP5startEP9IOService.cold.9
0xfffffe00092d2ca8  __ZN10AppleA7IOP5startEP9IOService.cold.10
0xfffffe00092d2cf4  __ZN10AppleA7IOP19startCPUWithOptionsEP15IOSlaveFirmwarej.cold.1
0xfffffe00092d2d40  __ZN10AppleA7IOP19startCPUWithOptionsEP15IOSlaveFirmwarej.cold.2
0xfffffe00092d2d8c  __ZN10AppleA7IOP16disablePowerLateEv.cold.1
0xfffffe00092d2db8  __ZN10AppleA7IOP21_dartMapiBootFirmwareEP8IOMapper.cold.1
0xfffffe00092d2e04  __ZN10AppleA7IOP21_dartMapiBootFirmwareEP8IOMapper.cold.4
0xfffffe00092d2e04  __ZN18AppleIOPMailboxLog6logMsgEPvjyj.cold.2
0xfffffe00092d2e04  __ZN18AppleIOPMailboxLog6logMsgEPvjyj.cold.4
0xfffffe00092d2e04  __ZN18AppleIOPMailboxLog6logMsgEPvjyj.cold.8
0xfffffe00092d2e04  __ZN18AppleIOPMailboxLog10getMessageEjjPy.cold.2
0xfffffe00092d2e04  __ZN18AppleIOPMailboxLog10getMessageEjjPy.cold.6
0xfffffe00092d2e04  __ZN18AppleIOPMailboxLog9formatLogER20AppleIOPBufferWriter.cold.2
0xfffffe00092d2e04  __ZN18AppleIOPMailboxLog9formatLogER20AppleIOPBufferWriter.cold.4
0xfffffe00092d2e04  __ZN10AppleA7IOP21_dartMapiBootFirmwareEP8IOMapper.cold.2
0xfffffe00092d2e1c  __ZN10AppleA7IOP21_dartMapiBootFirmwareEP8IOMapper.cold.3
0xfffffe00092d2e68  __ZN10AppleA7IOP21_dartMapiBootFirmwareEP8IOMapper.cold.5
0xfffffe00092d2eb4  __ZN10AppleA7IOP21_dartMapiBootFirmwareEP8IOMapper.cold.13
0xfffffe00092d2eb4  __ZN18AppleIOPMailboxLog6logMsgEPvjyj.cold.5
0xfffffe00092d2eb4  __ZN18AppleIOPMailboxLog6logMsgEPvjyj.cold.9
0xfffffe00092d2eb4  __ZN18AppleIOPMailboxLog6logMsgEPvjyj.cold.11
0xfffffe00092d2eb4  __ZN18AppleIOPMailboxLog10getMessageEjjPy.cold.3
0xfffffe00092d2eb4  __ZN18AppleIOPMailboxLog10getMessageEjjPy.cold.7
0xfffffe00092d2eb4  __ZN18AppleIOPMailboxLog9formatLogER20AppleIOPBufferWriter.cold.5
0xfffffe00092d2eb4  __ZN18AppleIOPMailboxLog9formatLogER20AppleIOPBufferWriter.cold.7
0xfffffe00092d2eb4  __ZN10AppleA7IOP21_dartMapiBootFirmwareEP8IOMapper.cold.6
0xfffffe00092d2ecc  __ZN10AppleA7IOP21_dartMapiBootFirmwareEP8IOMapper.cold.14
0xfffffe00092d2ecc  __ZN18AppleIOPMailboxLog6logMsgEPvjyj.cold.6
0xfffffe00092d2ecc  __ZN18AppleIOPMailboxLog6logMsgEPvjyj.cold.10
0xfffffe00092d2ecc  __ZN18AppleIOPMailboxLog6logMsgEPvjyj.cold.12
0xfffffe00092d2ecc  __ZN18AppleIOPMailboxLog10getMessageEjjPy.cold.4
0xfffffe00092d2ecc  __ZN18AppleIOPMailboxLog10getMessageEjjPy.cold.8
0xfffffe00092d2ecc  __ZN18AppleIOPMailboxLog9formatLogER20AppleIOPBufferWriter.cold.6
0xfffffe00092d2ecc  __ZN18AppleIOPMailboxLog9formatLogER20AppleIOPBufferWriter.cold.8
0xfffffe00092d2ecc  __ZN10AppleA7IOP21_dartMapiBootFirmwareEP8IOMapper.cold.7
0xfffffe00092d2ee4  __ZN10AppleA7IOP21_dartMapiBootFirmwareEP8IOMapper.cold.15
0xfffffe00092d2ee4  __ZN18AppleIOPMailboxLog6logMsgEPvjyj.cold.1
0xfffffe00092d2ee4  __ZN18AppleIOPMailboxLog6logMsgEPvjyj.cold.3
0xfffffe00092d2ee4  __ZN18AppleIOPMailboxLog6logMsgEPvjyj.cold.7
0xfffffe00092d2ee4  __ZN18AppleIOPMailboxLog10getMessageEjjPy.cold.1
0xfffffe00092d2ee4  __ZN18AppleIOPMailboxLog10getMessageEjjPy.cold.5
0xfffffe00092d2ee4  __ZN18AppleIOPMailboxLog9formatLogER20AppleIOPBufferWriter.cold.1
0xfffffe00092d2ee4  __ZN18AppleIOPMailboxLog9formatLogER20AppleIOPBufferWriter.cold.3
0xfffffe00092d2ee4  __ZN10AppleA7IOP21_dartMapiBootFirmwareEP8IOMapper.cold.8
0xfffffe00092d2efc  __ZN10AppleA7IOP21_dartMapiBootFirmwareEP8IOMapper.cold.9
0xfffffe00092d2f48  __ZN10AppleA7IOP21_dartMapiBootFirmwareEP8IOMapper.cold.10
0xfffffe00092d2f94  __ZN10AppleA7IOP21_dartMapiBootFirmwareEP8IOMapper.cold.11
0xfffffe00092d2fe0  __ZN10AppleA7IOP21_dartMapiBootFirmwareEP8IOMapper.cold.12
0xfffffe00092d302c  __ZN10AppleA7IOP24_dartMapMemoryDescriptorEP8IOMapperP18IOMemoryDescriptorPy.cold.1
0xfffffe00092d3078  __ZN10AppleA7IOP24_dartMapMemoryDescriptorEP8IOMapperP18IOMemoryDescriptorPy.cold.2
0xfffffe00092d30c4  __ZN10AppleA7IOP17setDoorbellActionEPFvP8OSObjectPvjES1_S2_j.cold.1
0xfffffe00092d3110  __ZN10AppleA7IOP14_outboxHandlerEP22IOInterruptEventSource.cold.1
0xfffffe00092d315c  __ZN10AppleA7IOP14getMailboxBulkEPvPj.cold.1
0xfffffe00092d31a8  __ZN10AppleA7IOP14getMailboxBulkEPvPj.cold.2
0xfffffe00092d31f4  __ZN10AppleA7IOP11postMailboxEjPvjb.cold.1
0xfffffe00092d3240  __ZN10AppleA7IOP25getWrapperPhysicalAddressEv.cold.1
0xfffffe00092d328c  __ZN10AppleA7IOP25getWrapperPhysicalAddressEv.cold.2
0xfffffe00092d32d8  __ZN20AppleIOPBufferWriter5writeEPKcz.cold.1
0xfffffe00092d3324  __ZN19AppleWrapperMailbox5startEP9IOService.cold.1
0xfffffe00092d3370  __ZN19AppleWrapperMailbox5startEP9IOService.cold.2
0xfffffe00092d33bc  __ZN19AppleWrapperMailbox5startEP9IOService.cold.3
0xfffffe00092d3408  __ZN19AppleWrapperMailbox5startEP9IOService.cold.4
0xfffffe00092d3454  __ZN19AppleWrapperMailbox5startEP9IOService.cold.5
0xfffffe00092d34a0  __ZN19AppleWrapperMailbox5startEP9IOService.cold.6
0xfffffe00092d34ec  __ZN19AppleWrapperMailbox5startEP9IOService.cold.7
0xfffffe00092d3538  __ZN19AppleWrapperMailbox5startEP9IOService.cold.8
0xfffffe00092d3584  __ZN19AppleWrapperMailbox17setDoorbellActionEPFvP8OSObjectPvjES1_S2_j.cold.1
0xfffffe00092d35d0  __ZN19AppleWrapperMailbox14_outboxHandlerEP22IOInterruptEventSource.cold.1
0xfffffe00092d361c  __ZN19AppleWrapperMailbox14getMailboxBulkEPvPj.cold.1
0xfffffe00092d3668  __ZN19AppleWrapperMailbox14getMailboxBulkEPvPj.cold.2
0xfffffe00092d36b4  __ZN19AppleWrapperMailbox25getWrapperPhysicalAddressEv.cold.1
0xfffffe00092d3700  __ZN19AppleWrapperMailbox25getWrapperPhysicalAddressEv.cold.2
0xfffffe000c7b68f4  __kext_apple_cc
0xfffffe000c7b68f8  __realmain
0xfffffe000c7b6900  __antimain
0xfffffe0007e3e958  __ZL14AppleA7IOP_ktv
0xfffffe0007e3e998  __ZL17AppleA7IOPNub_ktv
0xfffffe0007e3e9d8  __ZL23AppleWrapperMailbox_ktv
0xfffffe0007e3ea18  __ZL12AppleIOP_ktv
0xfffffe000c7b6908  __ZN10AppleA7IOP10gMetaClassE
0xfffffe00092cef50  __ZN10AppleA7IOP10getMailboxEjPvb
0xfffffe00092cdc18  __ZN10AppleA7IOP10initializeEv
0xfffffe00092cf618  __ZN10AppleA7IOP10resetStateEv
0xfffffe0007e3be58  __ZN10AppleA7IOP10superClassE
0xfffffe00092cdc24  __ZN10AppleA7IOP11enablePowerEv
0xfffffe00092cec9c  __ZN10AppleA7IOP11physToSlaveEy
0xfffffe00092cf2bc  __ZN10AppleA7IOP11postMailboxEjPvjb
0xfffffe00092cf878  __ZN10AppleA7IOP12_generateNMIEv
0xfffffe00092cf7f4  __ZN10AppleA7IOP12_mapFirmwareEyP18IOMemoryDescriptorj
0xfffffe00092ce458  __ZN10AppleA7IOP12_restrictDVAEy
0xfffffe00092ceb58  __ZN10AppleA7IOP12ringDoorbellEj
0xfffffe00092cdd0c  __ZN10AppleA7IOP13_disablePowerEv
0xfffffe00092cf1dc  __ZN10AppleA7IOP13_inboxHandlerEP22IOInterruptEventSource
0xfffffe00092cda5c  __ZN10AppleA7IOP13_publishBelowEP15IORegistryEntry
0xfffffe00092cea14  __ZN10AppleA7IOP14_isSingleRangeEP18IOMemoryDescriptor
0xfffffe00092cedd4  __ZN10AppleA7IOP14_outboxHandlerEP22IOInterruptEventSource
0xfffffe00092cf820  __ZN10AppleA7IOP14_unmapFirmwareEv
0xfffffe00092cf0f0  __ZN10AppleA7IOP14getMailboxBulkEPvPj
0xfffffe00092cee20  __ZN10AppleA7IOP14waitForMailboxEj
0xfffffe00092cf70c  __ZN10AppleA7IOP15_underflowCheckEjjPKc
0xfffffe00092cdcd8  __ZN10AppleA7IOP16_enablePowerLateEv
0xfffffe00092ceac4  __ZN10AppleA7IOP16_setMapperActiveEb
0xfffffe00092cf8a4  __ZN10AppleA7IOP16_syncIOPTimebaseEv
0xfffffe00092ce3b8  __ZN10AppleA7IOP16disablePowerLateEv
0xfffffe00092cf6e0  __ZN10AppleA7IOP16getStructuredLogEv
0xfffffe00092ce444  __ZN10AppleA7IOP17_hasiBootFirmwareEv
0xfffffe00092cebe8  __ZN10AppleA7IOP17setDoorbellActionEPFvP8OSObjectPvjES1_S2_j
0xfffffe00092cf1a4  __ZN10AppleA7IOP18_enableInboxFilterEv
0xfffffe00092ceca8  __ZN10AppleA7IOP18slaveMemoryOptionsEv
0xfffffe00092cddc0  __ZN10AppleA7IOP19startCPUWithOptionsEP15IOSlaveFirmwarej
0xfffffe00092cf7a4  __ZN10AppleA7IOP20_inboxUnderflowCheckEjj
0xfffffe00092cecb4  __ZN10AppleA7IOP20slaveMemoryAlignmentEv
0xfffffe00092ce470  __ZN10AppleA7IOP21_dartMapiBootFirmwareEP8IOMapper
0xfffffe00092cf8e8  __ZN10AppleA7IOP21_get_integer_propertyEP15IORegistryEntryPKcPj
0xfffffe00092cf754  __ZN10AppleA7IOP21_outboxUnderflowCheckEjj
0xfffffe00092cf630  __ZN10AppleA7IOP21getMailboxDebugStatusEv
0xfffffe00092cf60c  __ZN10AppleA7IOP22getMailboxDebugEntriesEv
0xfffffe00092cecc0  __ZN10AppleA7IOP23enableMailboxInterruptsEb
0xfffffe00092ce8bc  __ZN10AppleA7IOP24_dartMapMemoryDescriptorEP8IOMapperP18IOMemoryDescriptorPy
0xfffffe00092cf5d4  __ZN10AppleA7IOP25getWrapperPhysicalAddressEv
0xfffffe00092cfa0c  __ZN10AppleA7IOP29_get_integer_property_defaultEP15IORegistryEntryPKcj
0xfffffe00092ccfd8  __ZN10AppleA7IOP5startEP9IOService
0xfffffe00092ce9fc  __ZN10AppleA7IOP7_isIdleEPj
0xfffffe00092cf84c  __ZN10AppleA7IOP7_runCPUEb
0xfffffe00092ce154  __ZN10AppleA7IOP7stopCPUEb
0xfffffe00092ceb20  __ZN10AppleA7IOP8startCPUEP15IOSlaveFirmware
0xfffffe00092ccea0  __ZN10AppleA7IOP9MetaClassC1Ev
0xfffffe00092ccf58  __ZN10AppleA7IOP9MetaClassC2Ev
0xfffffe0007e3be50  __ZN10AppleA7IOP9metaClassE
0xfffffe00092ccef0  __ZN10AppleA7IOPC2EPK11OSMetaClass
0xfffffe00092ccf40  __ZN10AppleA7IOPD0Ev
0xfffffe00092ccf38  __ZN10AppleA7IOPD1Ev
0xfffffe00092ccf30  __ZN10AppleA7IOPD2Ev
0xfffffe00092ccfc0  __ZN10AppleA7IOPdlEPvm
0xfffffe00092ccfac  __ZN10AppleA7IOPnwEm
0xfffffe000c7b6930  __ZN13AppleA7IOPNub10gMetaClassE
0xfffffe0007e3c9c8  __ZN13AppleA7IOPNub10superClassE
0xfffffe00092d0138  __ZN13AppleA7IOPNub13matchLocationEP9IOService
0xfffffe00092cfeec  __ZN13AppleA7IOPNub17withRegistryEntryEP15IORegistryEntryP9IOService
0xfffffe00092cfc44  __ZN13AppleA7IOPNub9MetaClassC1Ev
0xfffffe00092cfd78  __ZN13AppleA7IOPNub9MetaClassC2Ev
0xfffffe0007e3c9c0  __ZN13AppleA7IOPNub9metaClassE
0xfffffe00092cfcc8  __ZN13AppleA7IOPNubC1EPK11OSMetaClass
0xfffffe00092cfe3c  __ZN13AppleA7IOPNubC1Ev
0xfffffe00092cfc94  __ZN13AppleA7IOPNubC2EPK11OSMetaClass
0xfffffe00092cfe94  __ZN13AppleA7IOPNubC2Ev
0xfffffe00092cfd0c  __ZN13AppleA7IOPNubD0Ev
0xfffffe00092cfd04  __ZN13AppleA7IOPNubD1Ev
0xfffffe00092cfcfc  __ZN13AppleA7IOPNubD2Ev
0xfffffe00092cfd50  __ZN13AppleA7IOPNubdlEPvm
0xfffffe00092cfe28  __ZN13AppleA7IOPNubnwEm
0xfffffe00092d25e4  __ZN18AppleIOPMailboxLog10getMessageEjjPy
0xfffffe00092d257c  __ZN18AppleIOPMailboxLog10logTimeoutEy
0xfffffe00092d2534  __ZN18AppleIOPMailboxLog14logMessageSentEPv
0xfffffe00092d251c  __ZN18AppleIOPMailboxLog18logMessageReceivedEPv
0xfffffe00092d254c  __ZN18AppleIOPMailboxLog19logReceiveInterruptEv
0xfffffe00092d2564  __ZN18AppleIOPMailboxLog20logTransmitInterruptEv
0xfffffe00092d2188  __ZN18AppleIOPMailboxLog4initEjPKcj
0xfffffe00092d25b4  __ZN18AppleIOPMailboxLog6getLogEPjS0_
0xfffffe00092d25d8  __ZN18AppleIOPMailboxLog6getPosEv
0xfffffe00092d220c  __ZN18AppleIOPMailboxLog6logMsgEPvjyj
0xfffffe00092d2728  __ZN18AppleIOPMailboxLog9formatLogER20AppleIOPBufferWriter
0xfffffe000c7b6958  __ZN19AppleWrapperMailbox10gMetaClassE
0xfffffe00092d117c  __ZN19AppleWrapperMailbox10getMailboxEjPvb
0xfffffe00092d0cfc  __ZN19AppleWrapperMailbox10initializeEv
0xfffffe00092d17e4  __ZN19AppleWrapperMailbox10resetStateEv
0xfffffe0007e3d378  __ZN19AppleWrapperMailbox10superClassE
0xfffffe00092d0d08  __ZN19AppleWrapperMailbox11enablePowerEv
0xfffffe00092d0edc  __ZN19AppleWrapperMailbox11physToSlaveEy
0xfffffe00092d14b0  __ZN19AppleWrapperMailbox11postMailboxEjPvjb
0xfffffe00092d1a40  __ZN19AppleWrapperMailbox12_generateNMIEv
0xfffffe00092d19bc  __ZN19AppleWrapperMailbox12_mapFirmwareEyP18IOMemoryDescriptorj
0xfffffe00092d0da8  __ZN19AppleWrapperMailbox12ringDoorbellEj
0xfffffe00092d13d0  __ZN19AppleWrapperMailbox13_inboxHandlerEP22IOInterruptEventSource
0xfffffe00092d0b40  __ZN19AppleWrapperMailbox13_publishBelowEP15IORegistryEntry
0xfffffe00092d1000  __ZN19AppleWrapperMailbox14_outboxHandlerEP22IOInterruptEventSource
0xfffffe00092d19e8  __ZN19AppleWrapperMailbox14_unmapFirmwareEv
0xfffffe00092d12e4  __ZN19AppleWrapperMailbox14getMailboxBulkEPvPj
0xfffffe00092d104c  __ZN19AppleWrapperMailbox14waitForMailboxEj
0xfffffe00092d18d4  __ZN19AppleWrapperMailbox15_underflowCheckEjjPKc
0xfffffe00092d0d14  __ZN19AppleWrapperMailbox16_setMapperActiveEb
0xfffffe00092d1a6c  __ZN19AppleWrapperMailbox16_syncIOPTimebaseEv
0xfffffe00092d1af0  __ZN19AppleWrapperMailbox16disablePowerLateEv
0xfffffe00092d18a8  __ZN19AppleWrapperMailbox16getStructuredLogEv
0xfffffe00092d0e28  __ZN19AppleWrapperMailbox17setDoorbellActionEPFvP8OSObjectPvjES1_S2_j
0xfffffe00092d1398  __ZN19AppleWrapperMailbox18_enableInboxFilterEv
0xfffffe00092d0ee8  __ZN19AppleWrapperMailbox18slaveMemoryOptionsEv
0xfffffe00092d1a98  __ZN19AppleWrapperMailbox19startCPUWithOptionsEP15IOSlaveFirmwarej
0xfffffe00092d196c  __ZN19AppleWrapperMailbox20_inboxUnderflowCheckEjj
0xfffffe00092d0ef4  __ZN19AppleWrapperMailbox20slaveMemoryAlignmentEv
0xfffffe00092d1b34  __ZN19AppleWrapperMailbox21_get_integer_propertyEP15IORegistryEntryPKcPj
0xfffffe00092d191c  __ZN19AppleWrapperMailbox21_outboxUnderflowCheckEjj
0xfffffe00092d17f8  __ZN19AppleWrapperMailbox21getMailboxDebugStatusEv
0xfffffe00092d17d8  __ZN19AppleWrapperMailbox22getMailboxDebugEntriesEv
0xfffffe00092d0f00  __ZN19AppleWrapperMailbox23enableMailboxInterruptsEb
0xfffffe00092d17a0  __ZN19AppleWrapperMailbox25getWrapperPhysicalAddressEv
0xfffffe00092d1c58  __ZN19AppleWrapperMailbox29_get_integer_property_defaultEP15IORegistryEntryPKcj
0xfffffe00092d03f4  __ZN19AppleWrapperMailbox5startEP9IOService
0xfffffe00092d1a14  __ZN19AppleWrapperMailbox7_runCPUEb
0xfffffe00092d1ac4  __ZN19AppleWrapperMailbox7stopCPUEb
0xfffffe00092d0d70  __ZN19AppleWrapperMailbox8startCPUEP15IOSlaveFirmware
0xfffffe00092d02c4  __ZN19AppleWrapperMailbox9MetaClassC1Ev
0xfffffe00092d0374  __ZN19AppleWrapperMailbox9MetaClassC2Ev
0xfffffe0007e3d370  __ZN19AppleWrapperMailbox9metaClassE
0xfffffe00092d0314  __ZN19AppleWrapperMailboxC2EPK11OSMetaClass
0xfffffe00092d035c  __ZN19AppleWrapperMailboxD0Ev
0xfffffe00092d0354  __ZN19AppleWrapperMailboxD1Ev
0xfffffe00092d034c  __ZN19AppleWrapperMailboxD2Ev
0xfffffe00092d03dc  __ZN19AppleWrapperMailboxdlEPvm
0xfffffe00092d03c8  __ZN19AppleWrapperMailboxnwEm
0xfffffe00092d0234  __ZN20AppleIOPBufferWriter5writeEPKcz
0xfffffe00092d01e4  __ZN20AppleIOPBufferWriter7consumeEm
0xfffffe00092d01b8  __ZN20AppleIOPBufferWriterC1EPcm
0xfffffe00092d01a8  __ZN20AppleIOPBufferWriterC2EPcm
0xfffffe000c7b6980  __ZN8AppleIOP10gMetaClassE
0xfffffe0007e3ded0  __ZN8AppleIOP10superClassE
0xfffffe00092d1ff0  __ZN8AppleIOP16getStructuredLogEv
0xfffffe00092d1e60  __ZN8AppleIOP9MetaClassC1Ev
0xfffffe00092d1f70  __ZN8AppleIOP9MetaClassC2Ev
0xfffffe00092d1ffc  __ZN8AppleIOP9getMsgLogEPjS0_
0xfffffe0007e3dec8  __ZN8AppleIOP9metaClassE
0xfffffe00092d1eb0  __ZN8AppleIOPC2EPK11OSMetaClass
0xfffffe00092d1f58  __ZN8AppleIOPD0Ev
0xfffffe00092d1f50  __ZN8AppleIOPD1Ev
0xfffffe00092d1eec  __ZN8AppleIOPD2Ev
0xfffffe00092d1fd8  __ZN8AppleIOPdlEPvm
0xfffffe00092d1fc4  __ZN8AppleIOPnwEm
0xfffffe00092ccf48  __ZNK10AppleA7IOP12getMetaClassEv
0xfffffe00092cf600  __ZNK10AppleA7IOP15mailboxItemSizeEv
0xfffffe00092cd9e4  __ZNK10AppleA7IOP16_ignoreMailboxesEv
0xfffffe00092cf0b8  __ZNK10AppleA7IOP19_mailboxesAvailableEv
0xfffffe00092cf700  __ZNK10AppleA7IOP23_apInitializesMailboxesEv
0xfffffe00092cf8d0  __ZNK10AppleA7IOP25_inboxEmptyInterruptIndexEv
0xfffffe00092cf8dc  __ZNK10AppleA7IOP29_outboxNotEmptyInterruptIndexEv
0xfffffe00092ce144  __ZNK10AppleA7IOP8_runningEv
0xfffffe00092ccfa0  __ZNK10AppleA7IOP9MetaClass5allocEv
0xfffffe00092d00b8  __ZNK13AppleA7IOPNub11compareNameEP8OSStringPS1_
0xfffffe00092cfd68  __ZNK13AppleA7IOPNub12getMetaClassEv
0xfffffe00092cfdc0  __ZNK13AppleA7IOPNub9MetaClass5allocEv
0xfffffe00092d2510  __ZNK18AppleIOPMailboxLog6_countEv
0xfffffe00092d0364  __ZNK19AppleWrapperMailbox12getMetaClassEv
0xfffffe00092d17cc  __ZNK19AppleWrapperMailbox15mailboxItemSizeEv
0xfffffe00092d0acc  __ZNK19AppleWrapperMailbox16_ignoreMailboxesEv
0xfffffe00092d12c8  __ZNK19AppleWrapperMailbox19_mailboxesAvailableEv
0xfffffe00092d18c8  __ZNK19AppleWrapperMailbox23_apInitializesMailboxesEv
0xfffffe00092d1b1c  __ZNK19AppleWrapperMailbox25_inboxEmptyInterruptIndexEv
0xfffffe00092d1b28  __ZNK19AppleWrapperMailbox29_outboxNotEmptyInterruptIndexEv
0xfffffe00092d0e1c  __ZNK19AppleWrapperMailbox8_runningEv
0xfffffe00092d03bc  __ZNK19AppleWrapperMailbox9MetaClass5allocEv
0xfffffe00092d01d8  __ZNK20AppleIOPBufferWriter4usedEv
0xfffffe00092d0204  __ZNK20AppleIOPBufferWriter7currentEv
0xfffffe00092d01c8  __ZNK20AppleIOPBufferWriter9remainingEv
0xfffffe00092d1f60  __ZNK8AppleIOP12getMetaClassEv
0xfffffe00092d1fb8  __ZNK8AppleIOP9MetaClass5allocEv
0xfffffe0007e3be60  __ZTV10AppleA7IOP
0xfffffe0007e3c9d0  __ZTV13AppleA7IOPNub
0xfffffe0007e3d380  __ZTV19AppleWrapperMailbox
0xfffffe0007e3ded8  __ZTV8AppleIOP
0xfffffe0007e3c8b8  __ZTVN10AppleA7IOP9MetaClassE
0xfffffe0007e3d268  __ZTVN13AppleA7IOPNub9MetaClassE
0xfffffe0007e3ddc0  __ZTVN19AppleWrapperMailbox9MetaClassE
0xfffffe0007e3e850  __ZTVN8AppleIOP9MetaClassE
0xfffffe000c7b6830  _kmod_info
0x0000000000000000  _IOFreeData
0x0000000000000000  _IOLockAlloc
0x0000000000000000  _IOLockLock
0x0000000000000000  _IOLockUnlock
0x0000000000000000  _IOLog
0x0000000000000000  _IOMallocData
0x0000000000000000  _IOMallocZeroData
0x0000000000000000  _IOSimpleLockAlloc
0x0000000000000000  _IOSimpleLockLock
0x0000000000000000  _IOSimpleLockUnlock
0x0000000000000000  _IOSleep
0x0000000000000000  _OSCompareAndSwap
0x0000000000000000  _OSObject_typed_operator_delete
0x0000000000000000  _OSObject_typed_operator_new
0x0000000000000000  _PE_parse_boot_argn
0x0000000000000000  __Z18IODTCompareNubNamePK15IORegistryEntryP8OSStringPS3_
0x0000000000000000  __Z23IODTFindMatchingEntriesP15IORegistryEntryjPKc
0x0000000000000000  __ZN10IOSlaveCPU10gMetaClassE
0x0000000000000000  __ZN10IOSlaveCPU4freeEv
0x0000000000000000  __ZN10IOSlaveCPU5startEP9IOService
0x0000000000000000  __ZN10IOSlaveCPUC2EPK11OSMetaClass
0x0000000000000000  __ZN10IOSlaveCPUD2Ev
0x0000000000000000  __ZN11IOMemoryMap18getPhysicalAddressEv
0x0000000000000000  __ZN11OSMetaClass21_RESERVEDOSMetaClass0Ev
0x0000000000000000  __ZN11OSMetaClass21_RESERVEDOSMetaClass1Ev
0x0000000000000000  __ZN11OSMetaClass21_RESERVEDOSMetaClass2Ev
0x0000000000000000  __ZN11OSMetaClass21_RESERVEDOSMetaClass3Ev
0x0000000000000000  __ZN11OSMetaClass21_RESERVEDOSMetaClass4Ev
0x0000000000000000  __ZN11OSMetaClass21_RESERVEDOSMetaClass5Ev
0x0000000000000000  __ZN11OSMetaClass21_RESERVEDOSMetaClass6Ev
0x0000000000000000  __ZN11OSMetaClass21_RESERVEDOSMetaClass7Ev
0x0000000000000000  __ZN11OSMetaClassC2EPKcPKS_j
0x0000000000000000  __ZN11OSMetaClassD2Ev
0x0000000000000000  __ZN12IODMACommand12OutputHost64EPS_NS_9Segment64EPvj
0x0000000000000000  __ZN12IODMACommand17withSpecificationEPFbPS_NS_9Segment64EPvjEhyNS_14MappingOptionsEyjP8IOMapperS2_
0x0000000000000000  __ZN15IORegistryEntry11detachAboveEPK15IORegistryPlane
0x0000000000000000  __ZN15IORegistryEntry11setLocationEPK8OSSymbolPK15IORegistryPlane
0x0000000000000000  __ZN15IORegistryEntry11setLocationEPKcPK15IORegistryPlane
0x0000000000000000  __ZN15IORegistryEntry11setPropertyEPK8OSStringP8OSObject
0x0000000000000000  __ZN15IORegistryEntry11setPropertyEPK8OSSymbolP8OSObject
0x0000000000000000  __ZN15IORegistryEntry11setPropertyEPKcP8OSObject
0x0000000000000000  __ZN15IORegistryEntry11setPropertyEPKcPvj
0x0000000000000000  __ZN15IORegistryEntry11setPropertyEPKcS1_
0x0000000000000000  __ZN15IORegistryEntry11setPropertyEPKcb
0x0000000000000000  __ZN15IORegistryEntry11setPropertyEPKcyj
0x0000000000000000  __ZN15IORegistryEntry13attachToChildEPS_PK15IORegistryPlane
0x0000000000000000  __ZN15IORegistryEntry13childFromPathEPKcPK15IORegistryPlanePcPi
0x0000000000000000  __ZN15IORegistryEntry13setPropertiesEP8OSObject
0x0000000000000000  __ZN15IORegistryEntry14attachToParentEPS_PK15IORegistryPlane
0x0000000000000000  __ZN15IORegistryEntry14propertyExistsEPKc
0x0000000000000000  __ZN15IORegistryEntry14removePropertyEPK8OSString
0x0000000000000000  __ZN15IORegistryEntry14removePropertyEPK8OSSymbol
0x0000000000000000  __ZN15IORegistryEntry14removePropertyEPKc
0x0000000000000000  __ZN15IORegistryEntry15detachFromChildEPS_PK15IORegistryPlane
0x0000000000000000  __ZN15IORegistryEntry16detachFromParentEPS_PK15IORegistryPlane
0x0000000000000000  __ZN15IORegistryEntry16setPropertyTableEP12OSDictionary
0x0000000000000000  __ZN15IORegistryEntry17runPropertyActionEPFiP8OSObjectPvS2_S2_S2_ES1_S2_S2_S2_S2_
0x0000000000000000  __ZN15IORegistryEntry25_RESERVEDIORegistryEntry0Ev
0x0000000000000000  __ZN15IORegistryEntry25_RESERVEDIORegistryEntry1Ev
0x0000000000000000  __ZN15IORegistryEntry25_RESERVEDIORegistryEntry2Ev
0x0000000000000000  __ZN15IORegistryEntry25_RESERVEDIORegistryEntry3Ev
0x0000000000000000  __ZN15IORegistryEntry25_RESERVEDIORegistryEntry4Ev
0x0000000000000000  __ZN15IORegistryEntry25_RESERVEDIORegistryEntry5Ev
0x0000000000000000  __ZN15IORegistryEntry25_RESERVEDIORegistryEntry6Ev
0x0000000000000000  __ZN15IORegistryEntry25_RESERVEDIORegistryEntry7Ev
0x0000000000000000  __ZN15IORegistryEntry25_RESERVEDIORegistryEntry8Ev
0x0000000000000000  __ZN15IORegistryEntry25_RESERVEDIORegistryEntry9Ev
0x0000000000000000  __ZN15IORegistryEntry26_RESERVEDIORegistryEntry10Ev
0x0000000000000000  __ZN15IORegistryEntry26_RESERVEDIORegistryEntry11Ev
0x0000000000000000  __ZN15IORegistryEntry26_RESERVEDIORegistryEntry12Ev
0x0000000000000000  __ZN15IORegistryEntry26_RESERVEDIORegistryEntry13Ev
0x0000000000000000  __ZN15IORegistryEntry26_RESERVEDIORegistryEntry14Ev
0x0000000000000000  __ZN15IORegistryEntry26_RESERVEDIORegistryEntry15Ev
0x0000000000000000  __ZN15IORegistryEntry26_RESERVEDIORegistryEntry16Ev
0x0000000000000000  __ZN15IORegistryEntry26_RESERVEDIORegistryEntry17Ev
0x0000000000000000  __ZN15IORegistryEntry26_RESERVEDIORegistryEntry18Ev
0x0000000000000000  __ZN15IORegistryEntry26_RESERVEDIORegistryEntry19Ev
0x0000000000000000  __ZN15IORegistryEntry26_RESERVEDIORegistryEntry20Ev
0x0000000000000000  __ZN15IORegistryEntry26_RESERVEDIORegistryEntry21Ev
0x0000000000000000  __ZN15IORegistryEntry26_RESERVEDIORegistryEntry22Ev
0x0000000000000000  __ZN15IORegistryEntry26_RESERVEDIORegistryEntry23Ev
0x0000000000000000  __ZN15IORegistryEntry26_RESERVEDIORegistryEntry24Ev
0x0000000000000000  __ZN15IORegistryEntry26_RESERVEDIORegistryEntry25Ev
0x0000000000000000  __ZN15IORegistryEntry26_RESERVEDIORegistryEntry26Ev
0x0000000000000000  __ZN15IORegistryEntry26_RESERVEDIORegistryEntry27Ev
0x0000000000000000  __ZN15IORegistryEntry26_RESERVEDIORegistryEntry28Ev
0x0000000000000000  __ZN15IORegistryEntry26_RESERVEDIORegistryEntry29Ev
0x0000000000000000  __ZN15IORegistryEntry26_RESERVEDIORegistryEntry30Ev
0x0000000000000000  __ZN15IORegistryEntry26_RESERVEDIORegistryEntry31Ev
0x0000000000000000  __ZN15IORegistryEntry7setNameEPK8OSSymbolPK15IORegistryPlane
0x0000000000000000  __ZN15IORegistryEntry7setNameEPKcPK15IORegistryPlane
0x0000000000000000  __ZN15IORegistryEntry9detachAllEPK15IORegistryPlane
0x0000000000000000  __ZN15IORegistryEntry9metaClassE
0x0000000000000000  __ZN15OSMetaClassBase12safeMetaCastEPKS_PK11OSMetaClass
0x0000000000000000  __ZN15OSMetaClassBase25_RESERVEDOSMetaClassBase0Ev
0x0000000000000000  __ZN15OSMetaClassBase25_RESERVEDOSMetaClassBase1Ev
0x0000000000000000  __ZN15OSMetaClassBase25_RESERVEDOSMetaClassBase2Ev
0x0000000000000000  __ZN15OSMetaClassBase25_RESERVEDOSMetaClassBase3Ev
0x0000000000000000  __ZN15OSMetaClassBase25_RESERVEDOSMetaClassBase4Ev
0x0000000000000000  __ZN15OSMetaClassBase25_RESERVEDOSMetaClassBase5Ev
0x0000000000000000  __ZN15OSMetaClassBase25_RESERVEDOSMetaClassBase6Ev
0x0000000000000000  __ZN15OSMetaClassBase25_RESERVEDOSMetaClassBase7Ev
0x0000000000000000  __ZN15OSMetaClassBase8DispatchE5IORPC
0x0000000000000000  __ZN15OSMetaClassBase9_ptmf2ptfEPKS_MS_FvvE
0x0000000000000000  __ZN16AppleARMIODevice9metaClassE
0x0000000000000000  __ZN27AppleARMFunctionAssertReset12withProviderEP15IORegistryEntryPKc
0x0000000000000000  __ZN28IOFilterInterruptEventSource26filterInterruptEventSourceEP8OSObjectPFvS1_P22IOInterruptEventSourceiEPFbS1_PS_EP9IOServicei
0x0000000000000000  __ZN6OSData9metaClassE
0x0000000000000000  __ZN8IOMapper19copyMapperForDeviceEP9IOService
0x0000000000000000  __ZN8OSObject18_RESERVEDOSObject0Ev
0x0000000000000000  __ZN8OSObject18_RESERVEDOSObject1Ev
0x0000000000000000  __ZN8OSObject18_RESERVEDOSObject2Ev
0x0000000000000000  __ZN8OSObject18_RESERVEDOSObject3Ev
0x0000000000000000  __ZN8OSObject18_RESERVEDOSObject4Ev
0x0000000000000000  __ZN8OSObject18_RESERVEDOSObject5Ev
0x0000000000000000  __ZN8OSObject18_RESERVEDOSObject6Ev
0x0000000000000000  __ZN8OSObject18_RESERVEDOSObject7Ev
0x0000000000000000  __ZN8OSObject18_RESERVEDOSObject8Ev
0x0000000000000000  __ZN8OSObject18_RESERVEDOSObject9Ev
0x0000000000000000  __ZN8OSObject19_RESERVEDOSObject10Ev
0x0000000000000000  __ZN8OSObject19_RESERVEDOSObject11Ev
0x0000000000000000  __ZN8OSObject19_RESERVEDOSObject12Ev
0x0000000000000000  __ZN8OSObject19_RESERVEDOSObject13Ev
0x0000000000000000  __ZN8OSObject19_RESERVEDOSObject14Ev
0x0000000000000000  __ZN8OSObject19_RESERVEDOSObject15Ev
0x0000000000000000  __ZN8OSObject4initEv
0x0000000000000000  __ZN8OSString11withCStringEPKc
0x0000000000000000  __ZN9IOService10adjustBusyEi
0x0000000000000000  __ZN9IOService10gMetaClassE
0x0000000000000000  __ZN9IOService10handleOpenEPS_jPv
0x0000000000000000  __ZN9IOService10joinPMtreeEPS_
0x0000000000000000  __ZN9IOService11handleCloseEPS_j
0x0000000000000000  __ZN9IOService12didTerminateEPS_jPb
0x0000000000000000  __ZN9IOService12getBusyStateEv
0x0000000000000000  __ZN9IOService12getResourcesEv
0x0000000000000000  __ZN9IOService12requestProbeEj
0x0000000000000000  __ZN9IOService12tellChangeUpEm
0x0000000000000000  __ZN9IOService12updateReportEP19IOReportChannelListjPvS2_
0x0000000000000000  __ZN9IOService13addPowerChildEPS_
0x0000000000000000  __ZN9IOService13askChangeDownEm
0x0000000000000000  __ZN9IOService13matchLocationEPS_
0x0000000000000000  __ZN9IOService13messageClientEjP8OSObjectPvm
0x0000000000000000  __ZN9IOService13newUserClientEP4taskPvjP12OSDictionaryPP12IOUserClient
0x0000000000000000  __ZN9IOService13newUserClientEP4taskPvjPP12IOUserClient
0x0000000000000000  __ZN9IOService13setPowerStateEmPS_
0x0000000000000000  __ZN9IOService13willTerminateEPS_j
0x0000000000000000  __ZN9IOService14activityTickleEmm
0x0000000000000000  __ZN9IOService14applyToClientsEPFvPS_PvES1_
0x0000000000000000  __ZN9IOService14causeInterruptEi
0x0000000000000000  __ZN9IOService14messageClientsEjPvm
0x0000000000000000  __ZN9IOService14tellChangeDownEm
0x0000000000000000  __ZN9IOService15comparePropertyEP12OSDictionaryPK8OSString
0x0000000000000000  __ZN9IOService15comparePropertyEP12OSDictionaryPKc
0x0000000000000000  __ZN9IOService15configureReportEP19IOReportChannelListjPvS2_
0x0000000000000000  __ZN9IOService15enableInterruptEi
0x0000000000000000  __ZN9IOService15errnoFromReturnEi
0x0000000000000000  __ZN9IOService15getDeviceMemoryEv
0x0000000000000000  __ZN9IOService15nextIdleTimeoutEyyj
0x0000000000000000  __ZN9IOService15powerChangeDoneEm
0x0000000000000000  __ZN9IOService15registerServiceEj
0x0000000000000000  __ZN9IOService15setDeviceMemoryEP7OSArray
0x0000000000000000  __ZN9IOService15terminateClientEPS_j
0x0000000000000000  __ZN9IOService16allowPowerChangeEm
0x0000000000000000  __ZN9IOService16applyToProvidersEPFvPS_PvES1_
0x0000000000000000  __ZN9IOService16disableInterruptEi
0x0000000000000000  __ZN9IOService16getInterruptTypeEiPi
0x0000000000000000  __ZN9IOService16registerInterestEPK8OSSymbolPFiPvS3_jPS_S3_mES3_S3_
0x0000000000000000  __ZN9IOService16removePowerChildEP17IOPowerConnection
0x0000000000000000  __ZN9IOService16requestTerminateEPS_j
0x0000000000000000  __ZN9IOService16stringFromReturnEi
0x0000000000000000  __ZN9IOService16tellNoChangeDownEm
0x0000000000000000  __ZN9IOService17addNeededResourceEPKc
0x0000000000000000  __ZN9IOService17applyToInterestedEPK8OSSymbolPFvP8OSObjectPvES5_
0x0000000000000000  __ZN9IOService17cancelPowerChangeEm
0x0000000000000000  __ZN9IOService17comparePropertiesEP12OSDictionaryP12OSCollection
0x0000000000000000  __ZN9IOService17getAggressivenessEmPm
0x0000000000000000  __ZN9IOService17registerInterruptEiP8OSObjectPFvS1_PvPS_iES2_
0x0000000000000000  __ZN9IOService17setAggressivenessEmm
0x0000000000000000  __ZN9IOService18lockForArbitrationEb
0x0000000000000000  __ZN9IOService18matchPropertyTableEP12OSDictionary
0x0000000000000000  __ZN9IOService18matchPropertyTableEP12OSDictionaryPi
0x0000000000000000  __ZN9IOService18setIdleTimerPeriodEm
0x0000000000000000  __ZN9IOService18systemWillShutdownEj
0x0000000000000000  __ZN9IOService19_RESERVEDIOService0Ev
0x0000000000000000  __ZN9IOService19_RESERVEDIOService1Ev
0x0000000000000000  __ZN9IOService19_RESERVEDIOService2Ev
0x0000000000000000  __ZN9IOService19_RESERVEDIOService3Ev
0x0000000000000000  __ZN9IOService19_RESERVEDIOService4Ev
0x0000000000000000  __ZN9IOService19_RESERVEDIOService5Ev
0x0000000000000000  __ZN9IOService19_RESERVEDIOService6Ev
0x0000000000000000  __ZN9IOService19_RESERVEDIOService7Ev
0x0000000000000000  __ZN9IOService19_RESERVEDIOService8Ev
0x0000000000000000  __ZN9IOService19_RESERVEDIOService9Ev
0x0000000000000000  __ZN9IOService19registerPowerDriverEPS_P14IOPMPowerStatem
0x0000000000000000  __ZN9IOService19unregisterInterruptEi
0x0000000000000000  __ZN9IOService20_RESERVEDIOService10Ev
0x0000000000000000  __ZN9IOService20_RESERVEDIOService11Ev
0x0000000000000000  __ZN9IOService20_RESERVEDIOService12Ev
0x0000000000000000  __ZN9IOService20_RESERVEDIOService13Ev
0x0000000000000000  __ZN9IOService20_RESERVEDIOService14Ev
0x0000000000000000  __ZN9IOService20_RESERVEDIOService15Ev
0x0000000000000000  __ZN9IOService20_RESERVEDIOService16Ev
0x0000000000000000  __ZN9IOService20_RESERVEDIOService17Ev
0x0000000000000000  __ZN9IOService20_RESERVEDIOService18Ev
0x0000000000000000  __ZN9IOService20_RESERVEDIOService19Ev
0x0000000000000000  __ZN9IOService20_RESERVEDIOService20Ev
0x0000000000000000  __ZN9IOService20_RESERVEDIOService21Ev
0x0000000000000000  __ZN9IOService20_RESERVEDIOService22Ev
0x0000000000000000  __ZN9IOService20_RESERVEDIOService23Ev
0x0000000000000000  __ZN9IOService20_RESERVEDIOService24Ev
0x0000000000000000  __ZN9IOService20_RESERVEDIOService25Ev
0x0000000000000000  __ZN9IOService20_RESERVEDIOService26Ev
0x0000000000000000  __ZN9IOService20_RESERVEDIOService27Ev
0x0000000000000000  __ZN9IOService20_RESERVEDIOService28Ev
0x0000000000000000  __ZN9IOService20_RESERVEDIOService29Ev
0x0000000000000000  __ZN9IOService20_RESERVEDIOService30Ev
0x0000000000000000  __ZN9IOService20_RESERVEDIOService31Ev
0x0000000000000000  __ZN9IOService20_RESERVEDIOService32Ev
0x0000000000000000  __ZN9IOService20_RESERVEDIOService33Ev
0x0000000000000000  __ZN9IOService20_RESERVEDIOService34Ev
0x0000000000000000  __ZN9IOService20_RESERVEDIOService35Ev
0x0000000000000000  __ZN9IOService20_RESERVEDIOService36Ev
0x0000000000000000  __ZN9IOService20_RESERVEDIOService37Ev
0x0000000000000000  __ZN9IOService20_RESERVEDIOService38Ev
0x0000000000000000  __ZN9IOService20_RESERVEDIOService39Ev
0x0000000000000000  __ZN9IOService20_RESERVEDIOService40Ev
0x0000000000000000  __ZN9IOService20_RESERVEDIOService41Ev
0x0000000000000000  __ZN9IOService20_RESERVEDIOService42Ev
0x0000000000000000  __ZN9IOService20_RESERVEDIOService43Ev
0x0000000000000000  __ZN9IOService20_RESERVEDIOService44Ev
0x0000000000000000  __ZN9IOService20_RESERVEDIOService45Ev
0x0000000000000000  __ZN9IOService20_RESERVEDIOService46Ev
0x0000000000000000  __ZN9IOService20_RESERVEDIOService47Ev
0x0000000000000000  __ZN9IOService20callPlatformFunctionEPK8OSSymbolbPvS3_S3_S3_
0x0000000000000000  __ZN9IOService20callPlatformFunctionEPKcbPvS2_S2_S2_
0x0000000000000000  __ZN9IOService20getDeviceMemoryCountEv
0x0000000000000000  __ZN9IOService20unlockForArbitrationEv
0x0000000000000000  __ZN9IOService21powerStateDidChangeToEmmPS_
0x0000000000000000  __ZN9IOService22copyClientWithCategoryEPK8OSSymbol
0x0000000000000000  __ZN9IOService22powerStateWillChangeToEmmPS_
0x0000000000000000  __ZN9IOService23acknowledgeNotificationEPvj
0x0000000000000000  __ZN9IOService23requestPowerDomainStateEmP17IOPowerConnectionm
0x0000000000000000  __ZN9IOService24getDeviceMemoryWithIndexEj
0x0000000000000000  __ZN9IOService24mapDeviceMemoryWithIndexEjj
0x0000000000000000  __ZN9IOService24powerStateForDomainStateEm
0x0000000000000000  __ZN9IOService27maxCapabilityForDomainStateEm
0x0000000000000000  __ZN9IOService31initialPowerStateForDomainStateEm
0x0000000000000000  __ZN9IOService4freeEv
0x0000000000000000  __ZN9IOService4initEP12OSDictionary
0x0000000000000000  __ZN9IOService4initEP15IORegistryEntryPK15IORegistryPlane
0x0000000000000000  __ZN9IOService4openEPS_jPv
0x0000000000000000  __ZN9IOService4stopEPS_
0x0000000000000000  __ZN9IOService5closeEPS_j
0x0000000000000000  __ZN9IOService5probeEPS_Pi
0x0000000000000000  __ZN9IOService5startEPS_
0x0000000000000000  __ZN9IOService6PMinitEv
0x0000000000000000  __ZN9IOService6PMstopEv
0x0000000000000000  __ZN9IOService6attachEPS_
0x0000000000000000  __ZN9IOService6detachEPS_
0x0000000000000000  __ZN9IOService7messageEjPS_Pv
0x0000000000000000  __ZN9IOService8DispatchE5IORPC
0x0000000000000000  __ZN9IOService8finalizeEj
0x0000000000000000  __ZN9IOService9terminateEj
0x0000000000000000  __ZN9IOServiceC2EPK11OSMetaClass
0x0000000000000000  __ZN9IOServiceD2Ev
0x0000000000000000  __ZNK10IOSlaveCPU11getWorkLoopEv
0x0000000000000000  __ZNK11OSMetaClass12getMetaClassEv
0x0000000000000000  __ZNK11OSMetaClass12taggedRetainEPKv
0x0000000000000000  __ZNK11OSMetaClass13taggedReleaseEPKv
0x0000000000000000  __ZNK11OSMetaClass13taggedReleaseEPKvi
0x0000000000000000  __ZNK11OSMetaClass14getRetainCountEv
0x0000000000000000  __ZNK11OSMetaClass19instanceConstructedEv
0x0000000000000000  __ZNK11OSMetaClass6retainEv
0x0000000000000000  __ZNK11OSMetaClass7releaseEi
0x0000000000000000  __ZNK11OSMetaClass7releaseEv
0x0000000000000000  __ZNK11OSMetaClass9serializeEP11OSSerialize
0x0000000000000000  __ZNK15IORegistryEntry11compareNameEP8OSStringPS1_
0x0000000000000000  __ZNK15IORegistryEntry11getLocationEPK15IORegistryPlane
0x0000000000000000  __ZNK15IORegistryEntry11getPropertyEPK8OSString
0x0000000000000000  __ZNK15IORegistryEntry11getPropertyEPK8OSStringPK15IORegistryPlanej
0x0000000000000000  __ZNK15IORegistryEntry11getPropertyEPK8OSSymbol
0x0000000000000000  __ZNK15IORegistryEntry11getPropertyEPK8OSSymbolPK15IORegistryPlanej
0x0000000000000000  __ZNK15IORegistryEntry11getPropertyEPKc
0x0000000000000000  __ZNK15IORegistryEntry11getPropertyEPKcPK15IORegistryPlanej
0x0000000000000000  __ZNK15IORegistryEntry12compareNamesEP8OSObjectPP8OSString
0x0000000000000000  __ZNK15IORegistryEntry12copyLocationEPK15IORegistryPlane
0x0000000000000000  __ZNK15IORegistryEntry12copyPropertyEPK8OSString
0x0000000000000000  __ZNK15IORegistryEntry12copyPropertyEPK8OSStringPK15IORegistryPlanej
0x0000000000000000  __ZNK15IORegistryEntry12copyPropertyEPK8OSSymbol
0x0000000000000000  __ZNK15IORegistryEntry12copyPropertyEPK8OSSymbolPK15IORegistryPlanej
0x0000000000000000  __ZNK15IORegistryEntry12copyPropertyEPKc
0x0000000000000000  __ZNK15IORegistryEntry12copyPropertyEPKcPK15IORegistryPlanej
0x0000000000000000  __ZNK15IORegistryEntry13getChildEntryEPK15IORegistryPlane
0x0000000000000000  __ZNK15IORegistryEntry14applyToParentsEPFvPS_PvES1_PK15IORegistryPlane
0x0000000000000000  __ZNK15IORegistryEntry14copyChildEntryEPK15IORegistryPlane
0x0000000000000000  __ZNK15IORegistryEntry14getParentEntryEPK15IORegistryPlane
0x0000000000000000  __ZNK15IORegistryEntry15applyToChildrenEPFvPS_PvES1_PK15IORegistryPlane
0x0000000000000000  __ZNK15IORegistryEntry15copyParentEntryEPK15IORegistryPlane
0x0000000000000000  __ZNK15IORegistryEntry16getChildIteratorEPK15IORegistryPlane
0x0000000000000000  __ZNK15IORegistryEntry16getPathComponentEPcPiPK15IORegistryPlane
0x0000000000000000  __ZNK15IORegistryEntry17getParentIteratorEPK15IORegistryPlane
0x0000000000000000  __ZNK15IORegistryEntry24dictionaryWithPropertiesEv
0x0000000000000000  __ZNK15IORegistryEntry7getNameEPK15IORegistryPlane
0x0000000000000000  __ZNK15IORegistryEntry7getPathEPcPiPK15IORegistryPlane
0x0000000000000000  __ZNK15IORegistryEntry7inPlaneEPK15IORegistryPlane
0x0000000000000000  __ZNK15IORegistryEntry7isChildEPS_PK15IORegistryPlaneb
0x0000000000000000  __ZNK15IORegistryEntry8copyNameEPK15IORegistryPlane
0x0000000000000000  __ZNK15IORegistryEntry8getDepthEPK15IORegistryPlane
0x0000000000000000  __ZNK15IORegistryEntry8isParentEPS_PK15IORegistryPlaneb
0x0000000000000000  __ZNK15OSMetaClassBase8metaCastEPKc
0x0000000000000000  __ZNK15OSMetaClassBase9isEqualToEPKS_
0x0000000000000000  __ZNK8OSObject12taggedRetainEPKv
0x0000000000000000  __ZNK8OSObject13taggedReleaseEPKv
0x0000000000000000  __ZNK8OSObject13taggedReleaseEPKvi
0x0000000000000000  __ZNK8OSObject14getRetainCountEv
0x0000000000000000  __ZNK8OSObject6retainEv
0x0000000000000000  __ZNK8OSObject7releaseEi
0x0000000000000000  __ZNK8OSObject7releaseEv
0x0000000000000000  __ZNK8OSObject9serializeEP11OSSerialize
0x0000000000000000  __ZNK9IOService11getProviderEv
0x0000000000000000  __ZNK9IOService11getWorkLoopEv
0x0000000000000000  __ZNK9IOService12handleIsOpenEPKS_
0x0000000000000000  __ZNK9IOService17getClientIteratorEv
0x0000000000000000  __ZNK9IOService19getProviderIteratorEv
0x0000000000000000  __ZNK9IOService19serializePropertiesEP11OSSerialize
0x0000000000000000  __ZNK9IOService21getOpenClientIteratorEv
0x0000000000000000  __ZNK9IOService23getOpenProviderIteratorEv
0x0000000000000000  __ZNK9IOService6isOpenEPKS_
0x0000000000000000  __ZNK9IOService8getStateEv
0x0000000000000000  __ZNK9IOService9getClientEv
0x0000000000000000  __ZTV15IORegistryEntry
0x0000000000000000  ___cxa_pure_virtual
0x0000000000000000  ___stack_chk_fail
0x0000000000000000  ___stack_chk_guard
0x0000000000000000  _assert_wait
0x0000000000000000  _assert_wait_timeout
0x0000000000000000  _clock_interval_to_absolutetime_interval
0x0000000000000000  _gIODTPlane
0x0000000000000000  _kdebug_enable
0x0000000000000000  _kernel_debug
0x0000000000000000  _kprintf
0x0000000000000000  _mach_absolute_time
0x0000000000000000  _ml_set_interrupts_enabled
0x0000000000000000  _panic
0x0000000000000000  _preemption_enabled
0x0000000000000000  _thread_block
0x0000000000000000  _thread_wakeup_prim
0x0000000000000000  _vsnprintf
